(dp0
I1
(lp1
S'<pose> 2.10 0.0 0.9 1.57 0.0 3.14 </pose>'
p2
aS'float joint_angles[17] = {0.0, 0.0,0.0, -0.0, 0.0, 0.0, 0.0, 0.0, 0.0, 0.0, 0.0, 0.0, 0.0, 0.0, 0.0, 0.0, 0.0};'
p3
asI2
(lp4
g2
aS'float joint_angles[17] = {0.0, 0.0,0.0, -0.139, 0.0, 0.0, 0.0, 0.0, 0.0, 0.0, 0.0, 0.0, 0.0, 0.0, 0.0, 0.0, 0.0};'
p5
asI3
(lp6
g2
aS'float joint_angles[17] = {0.0, 0.0,0.0, -0.279, 0.0, 0.0, 0.0, 0.0, 0.0, 0.0, 0.0, 0.0, 0.0, 0.0, 0.0, 0.0, 0.0};'
p7
asI4
(lp8
g2
aS'float joint_angles[17] = {0.0, 0.0,0.0, -0.419, 0.0, 0.0, 0.0, 0.0, 0.0, 0.0, 0.0, 0.0, 0.0, 0.0, 0.0, 0.0, 0.0};'
p9
asI5
(lp10
g2
aS'float joint_angles[17] = {0.0, 0.0,0.139, -0.0, 0.0, 0.0, 0.0, 0.0, 0.0, 0.0, 0.0, 0.0, 0.0, 0.0, 0.0, 0.0, 0.0};'
p11
asI6
(lp12
g2
aS'float joint_angles[17] = {0.0, 0.0,0.139, -0.139, 0.0, 0.0, 0.0, 0.0, 0.0, 0.0, 0.0, 0.0, 0.0, 0.0, 0.0, 0.0, 0.0};'
p13
asI7
(lp14
g2
aS'float joint_angles[17] = {0.0, 0.0,0.139, -0.279, 0.0, 0.0, 0.0, 0.0, 0.0, 0.0, 0.0, 0.0, 0.0, 0.0, 0.0, 0.0, 0.0};'
p15
asI8
(lp16
g2
aS'float joint_angles[17] = {0.0, 0.0,0.139, -0.419, 0.0, 0.0, 0.0, 0.0, 0.0, 0.0, 0.0, 0.0, 0.0, 0.0, 0.0, 0.0, 0.0};'
p17
asI9
(lp18
g2
aS'float joint_angles[17] = {0.0, 0.0,0.279, -0.0, 0.0, 0.0, 0.0, 0.0, 0.0, 0.0, 0.0, 0.0, 0.0, 0.0, 0.0, 0.0, 0.0};'
p19
asI10
(lp20
g2
aS'float joint_angles[17] = {0.0, 0.0,0.279, -0.139, 0.0, 0.0, 0.0, 0.0, 0.0, 0.0, 0.0, 0.0, 0.0, 0.0, 0.0, 0.0, 0.0};'
p21
asI11
(lp22
g2
aS'float joint_angles[17] = {0.0, 0.0,0.279, -0.279, 0.0, 0.0, 0.0, 0.0, 0.0, 0.0, 0.0, 0.0, 0.0, 0.0, 0.0, 0.0, 0.0};'
p23
asI12
(lp24
g2
aS'float joint_angles[17] = {0.0, 0.0,0.279, -0.419, 0.0, 0.0, 0.0, 0.0, 0.0, 0.0, 0.0, 0.0, 0.0, 0.0, 0.0, 0.0, 0.0};'
p25
asI13
(lp26
g2
aS'float joint_angles[17] = {0.0, 0.0,0.419, -0.0, 0.0, 0.0, 0.0, 0.0, 0.0, 0.0, 0.0, 0.0, 0.0, 0.0, 0.0, 0.0, 0.0};'
p27
asI14
(lp28
g2
aS'float joint_angles[17] = {0.0, 0.0,0.419, -0.139, 0.0, 0.0, 0.0, 0.0, 0.0, 0.0, 0.0, 0.0, 0.0, 0.0, 0.0, 0.0, 0.0};'
p29
asI15
(lp30
g2
aS'float joint_angles[17] = {0.0, 0.0,0.419, -0.279, 0.0, 0.0, 0.0, 0.0, 0.0, 0.0, 0.0, 0.0, 0.0, 0.0, 0.0, 0.0, 0.0};'
p31
asI16
(lp32
g2
aS'float joint_angles[17] = {0.0, 0.0,0.419, -0.419, 0.0, 0.0, 0.0, 0.0, 0.0, 0.0, 0.0, 0.0, 0.0, 0.0, 0.0, 0.0, 0.0};'
p33
as.