(dp0
I1
(lp1
S'<pose> 2.10 0.0 0.9 1.57 0.0 3.14 </pose>'
p2
aS'float joint_angles[18] = {0.0, 0.0,0.0, -0.0, 0.0, 0.0, 0.0, 0.0, 0.0, 0.0, 0.139, -0.139, 0.0, 0.0, 0.0, 0.0, 0.0, 0.0};'
p3
asI2
(lp4
S'<pose> 2.10 0.0 0.9 1.57 0.0 3.14 </pose>'
p5
aS'float joint_angles[18] = {0.0, 0.0,0.0, -0.0, 0.0, 0.0, 0.0, 0.0, 0.0, 0.0, 0.139, -0.279, 0.0, 0.0, 0.0, 0.0, 0.0, 0.0};'
p6
asI3
(lp7
S'<pose> 2.10 0.0 0.9 1.57 0.0 3.14 </pose>'
p8
aS'float joint_angles[18] = {0.0, 0.0,0.0, -0.0, 0.0, 0.0, 0.0, 0.0, 0.0, 0.0, 0.279, -0.139, 0.0, 0.0, 0.0, 0.0, 0.0, 0.0};'
p9
asI4
(lp10
S'<pose> 2.10 0.0 0.9 1.57 0.0 3.14 </pose>'
p11
aS'float joint_angles[18] = {0.0, 0.0,0.0, -0.0, 0.0, 0.0, 0.0, 0.0, 0.0, 0.0, 0.279, -0.279, 0.0, 0.0, 0.0, 0.0, 0.0, 0.0};'
p12
asI5
(lp13
S'<pose> 2.10 0.0 0.9 1.57 0.0 3.14 </pose>'
p14
aS'float joint_angles[18] = {0.0, 0.0,0.0, -0.139, 0.0, 0.0, 0.0, 0.0, 0.0, 0.0, 0.139, -0.139, 0.0, 0.0, 0.0, 0.0, 0.0, 0.0};'
p15
asI6
(lp16
S'<pose> 2.10 0.0 0.9 1.57 0.0 3.14 </pose>'
p17
aS'float joint_angles[18] = {0.0, 0.0,0.0, -0.139, 0.0, 0.0, 0.0, 0.0, 0.0, 0.0, 0.139, -0.279, 0.0, 0.0, 0.0, 0.0, 0.0, 0.0};'
p18
asI7
(lp19
S'<pose> 2.10 0.0 0.9 1.57 0.0 3.14 </pose>'
p20
aS'float joint_angles[18] = {0.0, 0.0,0.0, -0.139, 0.0, 0.0, 0.0, 0.0, 0.0, 0.0, 0.279, -0.139, 0.0, 0.0, 0.0, 0.0, 0.0, 0.0};'
p21
asI8
(lp22
S'<pose> 2.10 0.0 0.9 1.57 0.0 3.14 </pose>'
p23
aS'float joint_angles[18] = {0.0, 0.0,0.0, -0.139, 0.0, 0.0, 0.0, 0.0, 0.0, 0.0, 0.279, -0.279, 0.0, 0.0, 0.0, 0.0, 0.0, 0.0};'
p24
asI9
(lp25
S'<pose> 2.10 0.0 0.9 1.57 0.0 3.14 </pose>'
p26
aS'float joint_angles[18] = {0.0, 0.0,0.0, -0.279, 0.0, 0.0, 0.0, 0.0, 0.0, 0.0, 0.139, -0.139, 0.0, 0.0, 0.0, 0.0, 0.0, 0.0};'
p27
asI10
(lp28
S'<pose> 2.10 0.0 0.9 1.57 0.0 3.14 </pose>'
p29
aS'float joint_angles[18] = {0.0, 0.0,0.0, -0.279, 0.0, 0.0, 0.0, 0.0, 0.0, 0.0, 0.139, -0.279, 0.0, 0.0, 0.0, 0.0, 0.0, 0.0};'
p30
asI11
(lp31
S'<pose> 2.10 0.0 0.9 1.57 0.0 3.14 </pose>'
p32
aS'float joint_angles[18] = {0.0, 0.0,0.0, -0.279, 0.0, 0.0, 0.0, 0.0, 0.0, 0.0, 0.279, -0.139, 0.0, 0.0, 0.0, 0.0, 0.0, 0.0};'
p33
asI12
(lp34
S'<pose> 2.10 0.0 0.9 1.57 0.0 3.14 </pose>'
p35
aS'float joint_angles[18] = {0.0, 0.0,0.0, -0.279, 0.0, 0.0, 0.0, 0.0, 0.0, 0.0, 0.279, -0.279, 0.0, 0.0, 0.0, 0.0, 0.0, 0.0};'
p36
asI13
(lp37
S'<pose> 2.10 0.0 0.9 1.57 0.0 3.14 </pose>'
p38
aS'float joint_angles[18] = {0.0, 0.0,0.139, -0.0, 0.0, 0.0, 0.0, 0.0, 0.0, 0.0, 0.139, -0.139, 0.0, 0.0, 0.0, 0.0, 0.0, 0.0};'
p39
asI14
(lp40
S'<pose> 2.10 0.0 0.9 1.57 0.0 3.14 </pose>'
p41
aS'float joint_angles[18] = {0.0, 0.0,0.139, -0.0, 0.0, 0.0, 0.0, 0.0, 0.0, 0.0, 0.139, -0.279, 0.0, 0.0, 0.0, 0.0, 0.0, 0.0};'
p42
asI15
(lp43
S'<pose> 2.10 0.0 0.9 1.57 0.0 3.14 </pose>'
p44
aS'float joint_angles[18] = {0.0, 0.0,0.139, -0.0, 0.0, 0.0, 0.0, 0.0, 0.0, 0.0, 0.279, -0.139, 0.0, 0.0, 0.0, 0.0, 0.0, 0.0};'
p45
asI16
(lp46
S'<pose> 2.10 0.0 0.9 1.57 0.0 3.14 </pose>'
p47
aS'float joint_angles[18] = {0.0, 0.0,0.139, -0.0, 0.0, 0.0, 0.0, 0.0, 0.0, 0.0, 0.279, -0.279, 0.0, 0.0, 0.0, 0.0, 0.0, 0.0};'
p48
asI17
(lp49
S'<pose> 2.10 0.0 0.9 1.57 0.0 3.14 </pose>'
p50
aS'float joint_angles[18] = {0.0, 0.0,0.139, -0.139, 0.0, 0.0, 0.0, 0.0, 0.0, 0.0, 0.139, -0.139, 0.0, 0.0, 0.0, 0.0, 0.0, 0.0};'
p51
asI18
(lp52
S'<pose> 2.10 0.0 0.9 1.57 0.0 3.14 </pose>'
p53
aS'float joint_angles[18] = {0.0, 0.0,0.139, -0.139, 0.0, 0.0, 0.0, 0.0, 0.0, 0.0, 0.139, -0.279, 0.0, 0.0, 0.0, 0.0, 0.0, 0.0};'
p54
asI19
(lp55
S'<pose> 2.10 0.0 0.9 1.57 0.0 3.14 </pose>'
p56
aS'float joint_angles[18] = {0.0, 0.0,0.139, -0.139, 0.0, 0.0, 0.0, 0.0, 0.0, 0.0, 0.279, -0.139, 0.0, 0.0, 0.0, 0.0, 0.0, 0.0};'
p57
asI20
(lp58
S'<pose> 2.10 0.0 0.9 1.57 0.0 3.14 </pose>'
p59
aS'float joint_angles[18] = {0.0, 0.0,0.139, -0.139, 0.0, 0.0, 0.0, 0.0, 0.0, 0.0, 0.279, -0.279, 0.0, 0.0, 0.0, 0.0, 0.0, 0.0};'
p60
asI21
(lp61
S'<pose> 2.10 0.0 0.9 1.57 0.0 3.14 </pose>'
p62
aS'float joint_angles[18] = {0.0, 0.0,0.139, -0.279, 0.0, 0.0, 0.0, 0.0, 0.0, 0.0, 0.139, -0.139, 0.0, 0.0, 0.0, 0.0, 0.0, 0.0};'
p63
asI22
(lp64
S'<pose> 2.10 0.0 0.9 1.57 0.0 3.14 </pose>'
p65
aS'float joint_angles[18] = {0.0, 0.0,0.139, -0.279, 0.0, 0.0, 0.0, 0.0, 0.0, 0.0, 0.139, -0.279, 0.0, 0.0, 0.0, 0.0, 0.0, 0.0};'
p66
asI23
(lp67
S'<pose> 2.10 0.0 0.9 1.57 0.0 3.14 </pose>'
p68
aS'float joint_angles[18] = {0.0, 0.0,0.139, -0.279, 0.0, 0.0, 0.0, 0.0, 0.0, 0.0, 0.279, -0.139, 0.0, 0.0, 0.0, 0.0, 0.0, 0.0};'
p69
asI24
(lp70
S'<pose> 2.10 0.0 0.9 1.57 0.0 3.14 </pose>'
p71
aS'float joint_angles[18] = {0.0, 0.0,0.139, -0.279, 0.0, 0.0, 0.0, 0.0, 0.0, 0.0, 0.279, -0.279, 0.0, 0.0, 0.0, 0.0, 0.0, 0.0};'
p72
asI25
(lp73
S'<pose> 2.10 0.0 0.9 1.57 0.0 3.14 </pose>'
p74
aS'float joint_angles[18] = {0.0, 0.0,0.279, -0.0, 0.0, 0.0, 0.0, 0.0, 0.0, 0.0, 0.139, -0.139, 0.0, 0.0, 0.0, 0.0, 0.0, 0.0};'
p75
asI26
(lp76
S'<pose> 2.10 0.0 0.9 1.57 0.0 3.14 </pose>'
p77
aS'float joint_angles[18] = {0.0, 0.0,0.279, -0.0, 0.0, 0.0, 0.0, 0.0, 0.0, 0.0, 0.139, -0.279, 0.0, 0.0, 0.0, 0.0, 0.0, 0.0};'
p78
asI27
(lp79
S'<pose> 2.10 0.0 0.9 1.57 0.0 3.14 </pose>'
p80
aS'float joint_angles[18] = {0.0, 0.0,0.279, -0.0, 0.0, 0.0, 0.0, 0.0, 0.0, 0.0, 0.279, -0.139, 0.0, 0.0, 0.0, 0.0, 0.0, 0.0};'
p81
asI28
(lp82
S'<pose> 2.10 0.0 0.9 1.57 0.0 3.14 </pose>'
p83
aS'float joint_angles[18] = {0.0, 0.0,0.279, -0.0, 0.0, 0.0, 0.0, 0.0, 0.0, 0.0, 0.279, -0.279, 0.0, 0.0, 0.0, 0.0, 0.0, 0.0};'
p84
asI29
(lp85
S'<pose> 2.10 0.0 0.9 1.57 0.0 3.14 </pose>'
p86
aS'float joint_angles[18] = {0.0, 0.0,0.279, -0.139, 0.0, 0.0, 0.0, 0.0, 0.0, 0.0, 0.139, -0.139, 0.0, 0.0, 0.0, 0.0, 0.0, 0.0};'
p87
asI30
(lp88
S'<pose> 2.10 0.0 0.9 1.57 0.0 3.14 </pose>'
p89
aS'float joint_angles[18] = {0.0, 0.0,0.279, -0.139, 0.0, 0.0, 0.0, 0.0, 0.0, 0.0, 0.139, -0.279, 0.0, 0.0, 0.0, 0.0, 0.0, 0.0};'
p90
asI31
(lp91
S'<pose> 2.10 0.0 0.9 1.57 0.0 3.14 </pose>'
p92
aS'float joint_angles[18] = {0.0, 0.0,0.279, -0.139, 0.0, 0.0, 0.0, 0.0, 0.0, 0.0, 0.279, -0.139, 0.0, 0.0, 0.0, 0.0, 0.0, 0.0};'
p93
asI32
(lp94
S'<pose> 2.10 0.0 0.9 1.57 0.0 3.14 </pose>'
p95
aS'float joint_angles[18] = {0.0, 0.0,0.279, -0.139, 0.0, 0.0, 0.0, 0.0, 0.0, 0.0, 0.279, -0.279, 0.0, 0.0, 0.0, 0.0, 0.0, 0.0};'
p96
asI33
(lp97
S'<pose> 2.10 0.0 0.9 1.57 0.0 3.14 </pose>'
p98
aS'float joint_angles[18] = {0.0, 0.0,0.279, -0.279, 0.0, 0.0, 0.0, 0.0, 0.0, 0.0, 0.139, -0.139, 0.0, 0.0, 0.0, 0.0, 0.0, 0.0};'
p99
asI34
(lp100
S'<pose> 2.10 0.0 0.9 1.57 0.0 3.14 </pose>'
p101
aS'float joint_angles[18] = {0.0, 0.0,0.279, -0.279, 0.0, 0.0, 0.0, 0.0, 0.0, 0.0, 0.139, -0.279, 0.0, 0.0, 0.0, 0.0, 0.0, 0.0};'
p102
asI35
(lp103
S'<pose> 2.10 0.0 0.9 1.57 0.0 3.14 </pose>'
p104
aS'float joint_angles[18] = {0.0, 0.0,0.279, -0.279, 0.0, 0.0, 0.0, 0.0, 0.0, 0.0, 0.279, -0.139, 0.0, 0.0, 0.0, 0.0, 0.0, 0.0};'
p105
asI36
(lp106
S'<pose> 2.10 0.0 0.9 1.57 0.0 3.14 </pose>'
p107
aS'float joint_angles[18] = {0.0, 0.0,0.279, -0.279, 0.0, 0.0, 0.0, 0.0, 0.0, 0.0, 0.279, -0.279, 0.0, 0.0, 0.0, 0.0, 0.0, 0.0};'
p108
as.