(dp0
I1
(lp1
S'<pose> 2.10 0.0 0.9 1.57 0.0 2.965 </pose>'
p2
aS'float joint_angles[18] = {0.0, 0.0,0.0, -0.0, 0.0, 0.0, 0.0, 0.0, 0.0, 0.0, 0.0, -0.0, 0.0, 0.0, 0.0, 0.0, 0.0, 0.0};'
p3
asI2
(lp4
S'<pose> 2.10 0.0 0.9 1.57 0.0 2.965 </pose>'
p5
aS'float joint_angles[18] = {0.0, 0.0,0.0, -0.0, 0.0, 0.0, 0.0, 0.0, 0.0, 0.0, 0.0, -0.139, 0.0, 0.0, 0.0, 0.0, 0.0, 0.0};'
p6
asI3
(lp7
S'<pose> 2.10 0.0 0.9 1.57 0.0 2.965 </pose>'
p8
aS'float joint_angles[18] = {0.0, 0.0,0.0, -0.0, 0.0, 0.0, 0.0, 0.0, 0.0, 0.0, 0.0, -0.279, 0.0, 0.0, 0.0, 0.0, 0.0, 0.0};'
p9
asI4
(lp10
S'<pose> 2.10 0.0 0.9 1.57 0.0 2.965 </pose>'
p11
aS'float joint_angles[18] = {0.0, 0.0,0.0, -0.0, 0.0, 0.0, 0.0, 0.0, 0.0, 0.0, 0.139, -0.0, 0.0, 0.0, 0.0, 0.0, 0.0, 0.0};'
p12
asI5
(lp13
S'<pose> 2.10 0.0 0.9 1.57 0.0 2.965 </pose>'
p14
aS'float joint_angles[18] = {0.0, 0.0,0.0, -0.0, 0.0, 0.0, 0.0, 0.0, 0.0, 0.0, 0.139, -0.139, 0.0, 0.0, 0.0, 0.0, 0.0, 0.0};'
p15
asI6
(lp16
S'<pose> 2.10 0.0 0.9 1.57 0.0 2.965 </pose>'
p17
aS'float joint_angles[18] = {0.0, 0.0,0.0, -0.0, 0.0, 0.0, 0.0, 0.0, 0.0, 0.0, 0.139, -0.279, 0.0, 0.0, 0.0, 0.0, 0.0, 0.0};'
p18
asI7
(lp19
S'<pose> 2.10 0.0 0.9 1.57 0.0 2.965 </pose>'
p20
aS'float joint_angles[18] = {0.0, 0.0,0.0, -0.0, 0.0, 0.0, 0.0, 0.0, 0.0, 0.0, 0.279, -0.0, 0.0, 0.0, 0.0, 0.0, 0.0, 0.0};'
p21
asI8
(lp22
S'<pose> 2.10 0.0 0.9 1.57 0.0 2.965 </pose>'
p23
aS'float joint_angles[18] = {0.0, 0.0,0.0, -0.0, 0.0, 0.0, 0.0, 0.0, 0.0, 0.0, 0.279, -0.139, 0.0, 0.0, 0.0, 0.0, 0.0, 0.0};'
p24
asI9
(lp25
S'<pose> 2.10 0.0 0.9 1.57 0.0 2.965 </pose>'
p26
aS'float joint_angles[18] = {0.0, 0.0,0.0, -0.0, 0.0, 0.0, 0.0, 0.0, 0.0, 0.0, 0.279, -0.279, 0.0, 0.0, 0.0, 0.0, 0.0, 0.0};'
p27
asI10
(lp28
S'<pose> 2.10 0.0 0.9 1.57 0.0 2.965 </pose>'
p29
aS'float joint_angles[18] = {0.0, 0.0,0.0, -0.139, 0.0, 0.0, 0.0, 0.0, 0.0, 0.0, 0.0, -0.0, 0.0, 0.0, 0.0, 0.0, 0.0, 0.0};'
p30
asI11
(lp31
S'<pose> 2.10 0.0 0.9 1.57 0.0 2.965 </pose>'
p32
aS'float joint_angles[18] = {0.0, 0.0,0.0, -0.139, 0.0, 0.0, 0.0, 0.0, 0.0, 0.0, 0.0, -0.139, 0.0, 0.0, 0.0, 0.0, 0.0, 0.0};'
p33
asI12
(lp34
S'<pose> 2.10 0.0 0.9 1.57 0.0 2.965 </pose>'
p35
aS'float joint_angles[18] = {0.0, 0.0,0.0, -0.139, 0.0, 0.0, 0.0, 0.0, 0.0, 0.0, 0.0, -0.279, 0.0, 0.0, 0.0, 0.0, 0.0, 0.0};'
p36
asI13
(lp37
S'<pose> 2.10 0.0 0.9 1.57 0.0 2.965 </pose>'
p38
aS'float joint_angles[18] = {0.0, 0.0,0.0, -0.139, 0.0, 0.0, 0.0, 0.0, 0.0, 0.0, 0.139, -0.0, 0.0, 0.0, 0.0, 0.0, 0.0, 0.0};'
p39
asI14
(lp40
S'<pose> 2.10 0.0 0.9 1.57 0.0 2.965 </pose>'
p41
aS'float joint_angles[18] = {0.0, 0.0,0.0, -0.139, 0.0, 0.0, 0.0, 0.0, 0.0, 0.0, 0.139, -0.139, 0.0, 0.0, 0.0, 0.0, 0.0, 0.0};'
p42
asI15
(lp43
S'<pose> 2.10 0.0 0.9 1.57 0.0 2.965 </pose>'
p44
aS'float joint_angles[18] = {0.0, 0.0,0.0, -0.139, 0.0, 0.0, 0.0, 0.0, 0.0, 0.0, 0.139, -0.279, 0.0, 0.0, 0.0, 0.0, 0.0, 0.0};'
p45
asI16
(lp46
S'<pose> 2.10 0.0 0.9 1.57 0.0 2.965 </pose>'
p47
aS'float joint_angles[18] = {0.0, 0.0,0.0, -0.139, 0.0, 0.0, 0.0, 0.0, 0.0, 0.0, 0.279, -0.0, 0.0, 0.0, 0.0, 0.0, 0.0, 0.0};'
p48
asI17
(lp49
S'<pose> 2.10 0.0 0.9 1.57 0.0 2.965 </pose>'
p50
aS'float joint_angles[18] = {0.0, 0.0,0.0, -0.139, 0.0, 0.0, 0.0, 0.0, 0.0, 0.0, 0.279, -0.139, 0.0, 0.0, 0.0, 0.0, 0.0, 0.0};'
p51
asI18
(lp52
S'<pose> 2.10 0.0 0.9 1.57 0.0 2.965 </pose>'
p53
aS'float joint_angles[18] = {0.0, 0.0,0.0, -0.139, 0.0, 0.0, 0.0, 0.0, 0.0, 0.0, 0.279, -0.279, 0.0, 0.0, 0.0, 0.0, 0.0, 0.0};'
p54
asI19
(lp55
S'<pose> 2.10 0.0 0.9 1.57 0.0 2.965 </pose>'
p56
aS'float joint_angles[18] = {0.0, 0.0,0.0, -0.279, 0.0, 0.0, 0.0, 0.0, 0.0, 0.0, 0.0, -0.0, 0.0, 0.0, 0.0, 0.0, 0.0, 0.0};'
p57
asI20
(lp58
S'<pose> 2.10 0.0 0.9 1.57 0.0 2.965 </pose>'
p59
aS'float joint_angles[18] = {0.0, 0.0,0.0, -0.279, 0.0, 0.0, 0.0, 0.0, 0.0, 0.0, 0.0, -0.139, 0.0, 0.0, 0.0, 0.0, 0.0, 0.0};'
p60
asI21
(lp61
S'<pose> 2.10 0.0 0.9 1.57 0.0 2.965 </pose>'
p62
aS'float joint_angles[18] = {0.0, 0.0,0.0, -0.279, 0.0, 0.0, 0.0, 0.0, 0.0, 0.0, 0.0, -0.279, 0.0, 0.0, 0.0, 0.0, 0.0, 0.0};'
p63
asI22
(lp64
S'<pose> 2.10 0.0 0.9 1.57 0.0 2.965 </pose>'
p65
aS'float joint_angles[18] = {0.0, 0.0,0.0, -0.279, 0.0, 0.0, 0.0, 0.0, 0.0, 0.0, 0.139, -0.0, 0.0, 0.0, 0.0, 0.0, 0.0, 0.0};'
p66
asI23
(lp67
S'<pose> 2.10 0.0 0.9 1.57 0.0 2.965 </pose>'
p68
aS'float joint_angles[18] = {0.0, 0.0,0.0, -0.279, 0.0, 0.0, 0.0, 0.0, 0.0, 0.0, 0.139, -0.139, 0.0, 0.0, 0.0, 0.0, 0.0, 0.0};'
p69
asI24
(lp70
S'<pose> 2.10 0.0 0.9 1.57 0.0 2.965 </pose>'
p71
aS'float joint_angles[18] = {0.0, 0.0,0.0, -0.279, 0.0, 0.0, 0.0, 0.0, 0.0, 0.0, 0.139, -0.279, 0.0, 0.0, 0.0, 0.0, 0.0, 0.0};'
p72
asI25
(lp73
S'<pose> 2.10 0.0 0.9 1.57 0.0 2.965 </pose>'
p74
aS'float joint_angles[18] = {0.0, 0.0,0.0, -0.279, 0.0, 0.0, 0.0, 0.0, 0.0, 0.0, 0.279, -0.0, 0.0, 0.0, 0.0, 0.0, 0.0, 0.0};'
p75
asI26
(lp76
S'<pose> 2.10 0.0 0.9 1.57 0.0 2.965 </pose>'
p77
aS'float joint_angles[18] = {0.0, 0.0,0.0, -0.279, 0.0, 0.0, 0.0, 0.0, 0.0, 0.0, 0.279, -0.139, 0.0, 0.0, 0.0, 0.0, 0.0, 0.0};'
p78
asI27
(lp79
S'<pose> 2.10 0.0 0.9 1.57 0.0 2.965 </pose>'
p80
aS'float joint_angles[18] = {0.0, 0.0,0.0, -0.279, 0.0, 0.0, 0.0, 0.0, 0.0, 0.0, 0.279, -0.279, 0.0, 0.0, 0.0, 0.0, 0.0, 0.0};'
p81
asI28
(lp82
S'<pose> 2.10 0.0 0.9 1.57 0.0 2.965 </pose>'
p83
aS'float joint_angles[18] = {0.0, 0.0,0.139, -0.0, 0.0, 0.0, 0.0, 0.0, 0.0, 0.0, 0.0, -0.0, 0.0, 0.0, 0.0, 0.0, 0.0, 0.0};'
p84
asI29
(lp85
S'<pose> 2.10 0.0 0.9 1.57 0.0 2.965 </pose>'
p86
aS'float joint_angles[18] = {0.0, 0.0,0.139, -0.0, 0.0, 0.0, 0.0, 0.0, 0.0, 0.0, 0.0, -0.139, 0.0, 0.0, 0.0, 0.0, 0.0, 0.0};'
p87
asI30
(lp88
S'<pose> 2.10 0.0 0.9 1.57 0.0 2.965 </pose>'
p89
aS'float joint_angles[18] = {0.0, 0.0,0.139, -0.0, 0.0, 0.0, 0.0, 0.0, 0.0, 0.0, 0.0, -0.279, 0.0, 0.0, 0.0, 0.0, 0.0, 0.0};'
p90
asI31
(lp91
S'<pose> 2.10 0.0 0.9 1.57 0.0 2.965 </pose>'
p92
aS'float joint_angles[18] = {0.0, 0.0,0.139, -0.0, 0.0, 0.0, 0.0, 0.0, 0.0, 0.0, 0.139, -0.0, 0.0, 0.0, 0.0, 0.0, 0.0, 0.0};'
p93
asI32
(lp94
S'<pose> 2.10 0.0 0.9 1.57 0.0 2.965 </pose>'
p95
aS'float joint_angles[18] = {0.0, 0.0,0.139, -0.0, 0.0, 0.0, 0.0, 0.0, 0.0, 0.0, 0.139, -0.139, 0.0, 0.0, 0.0, 0.0, 0.0, 0.0};'
p96
asI33
(lp97
S'<pose> 2.10 0.0 0.9 1.57 0.0 2.965 </pose>'
p98
aS'float joint_angles[18] = {0.0, 0.0,0.139, -0.0, 0.0, 0.0, 0.0, 0.0, 0.0, 0.0, 0.139, -0.279, 0.0, 0.0, 0.0, 0.0, 0.0, 0.0};'
p99
asI34
(lp100
S'<pose> 2.10 0.0 0.9 1.57 0.0 2.965 </pose>'
p101
aS'float joint_angles[18] = {0.0, 0.0,0.139, -0.0, 0.0, 0.0, 0.0, 0.0, 0.0, 0.0, 0.279, -0.0, 0.0, 0.0, 0.0, 0.0, 0.0, 0.0};'
p102
asI35
(lp103
S'<pose> 2.10 0.0 0.9 1.57 0.0 2.965 </pose>'
p104
aS'float joint_angles[18] = {0.0, 0.0,0.139, -0.0, 0.0, 0.0, 0.0, 0.0, 0.0, 0.0, 0.279, -0.139, 0.0, 0.0, 0.0, 0.0, 0.0, 0.0};'
p105
asI36
(lp106
S'<pose> 2.10 0.0 0.9 1.57 0.0 2.965 </pose>'
p107
aS'float joint_angles[18] = {0.0, 0.0,0.139, -0.0, 0.0, 0.0, 0.0, 0.0, 0.0, 0.0, 0.279, -0.279, 0.0, 0.0, 0.0, 0.0, 0.0, 0.0};'
p108
asI37
(lp109
S'<pose> 2.10 0.0 0.9 1.57 0.0 2.965 </pose>'
p110
aS'float joint_angles[18] = {0.0, 0.0,0.139, -0.139, 0.0, 0.0, 0.0, 0.0, 0.0, 0.0, 0.0, -0.0, 0.0, 0.0, 0.0, 0.0, 0.0, 0.0};'
p111
asI38
(lp112
S'<pose> 2.10 0.0 0.9 1.57 0.0 2.965 </pose>'
p113
aS'float joint_angles[18] = {0.0, 0.0,0.139, -0.139, 0.0, 0.0, 0.0, 0.0, 0.0, 0.0, 0.0, -0.139, 0.0, 0.0, 0.0, 0.0, 0.0, 0.0};'
p114
asI39
(lp115
S'<pose> 2.10 0.0 0.9 1.57 0.0 2.965 </pose>'
p116
aS'float joint_angles[18] = {0.0, 0.0,0.139, -0.139, 0.0, 0.0, 0.0, 0.0, 0.0, 0.0, 0.0, -0.279, 0.0, 0.0, 0.0, 0.0, 0.0, 0.0};'
p117
asI40
(lp118
S'<pose> 2.10 0.0 0.9 1.57 0.0 2.965 </pose>'
p119
aS'float joint_angles[18] = {0.0, 0.0,0.139, -0.139, 0.0, 0.0, 0.0, 0.0, 0.0, 0.0, 0.139, -0.0, 0.0, 0.0, 0.0, 0.0, 0.0, 0.0};'
p120
asI41
(lp121
S'<pose> 2.10 0.0 0.9 1.57 0.0 2.965 </pose>'
p122
aS'float joint_angles[18] = {0.0, 0.0,0.139, -0.139, 0.0, 0.0, 0.0, 0.0, 0.0, 0.0, 0.139, -0.139, 0.0, 0.0, 0.0, 0.0, 0.0, 0.0};'
p123
asI42
(lp124
S'<pose> 2.10 0.0 0.9 1.57 0.0 2.965 </pose>'
p125
aS'float joint_angles[18] = {0.0, 0.0,0.139, -0.139, 0.0, 0.0, 0.0, 0.0, 0.0, 0.0, 0.139, -0.279, 0.0, 0.0, 0.0, 0.0, 0.0, 0.0};'
p126
asI43
(lp127
S'<pose> 2.10 0.0 0.9 1.57 0.0 2.965 </pose>'
p128
aS'float joint_angles[18] = {0.0, 0.0,0.139, -0.139, 0.0, 0.0, 0.0, 0.0, 0.0, 0.0, 0.279, -0.0, 0.0, 0.0, 0.0, 0.0, 0.0, 0.0};'
p129
asI44
(lp130
S'<pose> 2.10 0.0 0.9 1.57 0.0 2.965 </pose>'
p131
aS'float joint_angles[18] = {0.0, 0.0,0.139, -0.139, 0.0, 0.0, 0.0, 0.0, 0.0, 0.0, 0.279, -0.139, 0.0, 0.0, 0.0, 0.0, 0.0, 0.0};'
p132
asI45
(lp133
S'<pose> 2.10 0.0 0.9 1.57 0.0 2.965 </pose>'
p134
aS'float joint_angles[18] = {0.0, 0.0,0.139, -0.139, 0.0, 0.0, 0.0, 0.0, 0.0, 0.0, 0.279, -0.279, 0.0, 0.0, 0.0, 0.0, 0.0, 0.0};'
p135
asI46
(lp136
S'<pose> 2.10 0.0 0.9 1.57 0.0 2.965 </pose>'
p137
aS'float joint_angles[18] = {0.0, 0.0,0.139, -0.279, 0.0, 0.0, 0.0, 0.0, 0.0, 0.0, 0.0, -0.0, 0.0, 0.0, 0.0, 0.0, 0.0, 0.0};'
p138
asI47
(lp139
S'<pose> 2.10 0.0 0.9 1.57 0.0 2.965 </pose>'
p140
aS'float joint_angles[18] = {0.0, 0.0,0.139, -0.279, 0.0, 0.0, 0.0, 0.0, 0.0, 0.0, 0.0, -0.139, 0.0, 0.0, 0.0, 0.0, 0.0, 0.0};'
p141
asI48
(lp142
S'<pose> 2.10 0.0 0.9 1.57 0.0 2.965 </pose>'
p143
aS'float joint_angles[18] = {0.0, 0.0,0.139, -0.279, 0.0, 0.0, 0.0, 0.0, 0.0, 0.0, 0.0, -0.279, 0.0, 0.0, 0.0, 0.0, 0.0, 0.0};'
p144
asI49
(lp145
S'<pose> 2.10 0.0 0.9 1.57 0.0 2.965 </pose>'
p146
aS'float joint_angles[18] = {0.0, 0.0,0.139, -0.279, 0.0, 0.0, 0.0, 0.0, 0.0, 0.0, 0.139, -0.0, 0.0, 0.0, 0.0, 0.0, 0.0, 0.0};'
p147
asI50
(lp148
S'<pose> 2.10 0.0 0.9 1.57 0.0 2.965 </pose>'
p149
aS'float joint_angles[18] = {0.0, 0.0,0.139, -0.279, 0.0, 0.0, 0.0, 0.0, 0.0, 0.0, 0.139, -0.139, 0.0, 0.0, 0.0, 0.0, 0.0, 0.0};'
p150
asI51
(lp151
S'<pose> 2.10 0.0 0.9 1.57 0.0 2.965 </pose>'
p152
aS'float joint_angles[18] = {0.0, 0.0,0.139, -0.279, 0.0, 0.0, 0.0, 0.0, 0.0, 0.0, 0.139, -0.279, 0.0, 0.0, 0.0, 0.0, 0.0, 0.0};'
p153
asI52
(lp154
S'<pose> 2.10 0.0 0.9 1.57 0.0 2.965 </pose>'
p155
aS'float joint_angles[18] = {0.0, 0.0,0.139, -0.279, 0.0, 0.0, 0.0, 0.0, 0.0, 0.0, 0.279, -0.0, 0.0, 0.0, 0.0, 0.0, 0.0, 0.0};'
p156
asI53
(lp157
S'<pose> 2.10 0.0 0.9 1.57 0.0 2.965 </pose>'
p158
aS'float joint_angles[18] = {0.0, 0.0,0.139, -0.279, 0.0, 0.0, 0.0, 0.0, 0.0, 0.0, 0.279, -0.139, 0.0, 0.0, 0.0, 0.0, 0.0, 0.0};'
p159
asI54
(lp160
S'<pose> 2.10 0.0 0.9 1.57 0.0 2.965 </pose>'
p161
aS'float joint_angles[18] = {0.0, 0.0,0.139, -0.279, 0.0, 0.0, 0.0, 0.0, 0.0, 0.0, 0.279, -0.279, 0.0, 0.0, 0.0, 0.0, 0.0, 0.0};'
p162
asI55
(lp163
S'<pose> 2.10 0.0 0.9 1.57 0.0 2.965 </pose>'
p164
aS'float joint_angles[18] = {0.0, 0.0,0.279, -0.0, 0.0, 0.0, 0.0, 0.0, 0.0, 0.0, 0.0, -0.0, 0.0, 0.0, 0.0, 0.0, 0.0, 0.0};'
p165
asI56
(lp166
S'<pose> 2.10 0.0 0.9 1.57 0.0 2.965 </pose>'
p167
aS'float joint_angles[18] = {0.0, 0.0,0.279, -0.0, 0.0, 0.0, 0.0, 0.0, 0.0, 0.0, 0.0, -0.139, 0.0, 0.0, 0.0, 0.0, 0.0, 0.0};'
p168
asI57
(lp169
S'<pose> 2.10 0.0 0.9 1.57 0.0 2.965 </pose>'
p170
aS'float joint_angles[18] = {0.0, 0.0,0.279, -0.0, 0.0, 0.0, 0.0, 0.0, 0.0, 0.0, 0.0, -0.279, 0.0, 0.0, 0.0, 0.0, 0.0, 0.0};'
p171
asI58
(lp172
S'<pose> 2.10 0.0 0.9 1.57 0.0 2.965 </pose>'
p173
aS'float joint_angles[18] = {0.0, 0.0,0.279, -0.0, 0.0, 0.0, 0.0, 0.0, 0.0, 0.0, 0.139, -0.0, 0.0, 0.0, 0.0, 0.0, 0.0, 0.0};'
p174
asI59
(lp175
S'<pose> 2.10 0.0 0.9 1.57 0.0 2.965 </pose>'
p176
aS'float joint_angles[18] = {0.0, 0.0,0.279, -0.0, 0.0, 0.0, 0.0, 0.0, 0.0, 0.0, 0.139, -0.139, 0.0, 0.0, 0.0, 0.0, 0.0, 0.0};'
p177
asI60
(lp178
S'<pose> 2.10 0.0 0.9 1.57 0.0 2.965 </pose>'
p179
aS'float joint_angles[18] = {0.0, 0.0,0.279, -0.0, 0.0, 0.0, 0.0, 0.0, 0.0, 0.0, 0.139, -0.279, 0.0, 0.0, 0.0, 0.0, 0.0, 0.0};'
p180
asI61
(lp181
S'<pose> 2.10 0.0 0.9 1.57 0.0 2.965 </pose>'
p182
aS'float joint_angles[18] = {0.0, 0.0,0.279, -0.0, 0.0, 0.0, 0.0, 0.0, 0.0, 0.0, 0.279, -0.0, 0.0, 0.0, 0.0, 0.0, 0.0, 0.0};'
p183
asI62
(lp184
S'<pose> 2.10 0.0 0.9 1.57 0.0 2.965 </pose>'
p185
aS'float joint_angles[18] = {0.0, 0.0,0.279, -0.0, 0.0, 0.0, 0.0, 0.0, 0.0, 0.0, 0.279, -0.139, 0.0, 0.0, 0.0, 0.0, 0.0, 0.0};'
p186
asI63
(lp187
S'<pose> 2.10 0.0 0.9 1.57 0.0 2.965 </pose>'
p188
aS'float joint_angles[18] = {0.0, 0.0,0.279, -0.0, 0.0, 0.0, 0.0, 0.0, 0.0, 0.0, 0.279, -0.279, 0.0, 0.0, 0.0, 0.0, 0.0, 0.0};'
p189
asI64
(lp190
S'<pose> 2.10 0.0 0.9 1.57 0.0 2.965 </pose>'
p191
aS'float joint_angles[18] = {0.0, 0.0,0.279, -0.139, 0.0, 0.0, 0.0, 0.0, 0.0, 0.0, 0.0, -0.0, 0.0, 0.0, 0.0, 0.0, 0.0, 0.0};'
p192
asI65
(lp193
S'<pose> 2.10 0.0 0.9 1.57 0.0 2.965 </pose>'
p194
aS'float joint_angles[18] = {0.0, 0.0,0.279, -0.139, 0.0, 0.0, 0.0, 0.0, 0.0, 0.0, 0.0, -0.139, 0.0, 0.0, 0.0, 0.0, 0.0, 0.0};'
p195
asI66
(lp196
S'<pose> 2.10 0.0 0.9 1.57 0.0 2.965 </pose>'
p197
aS'float joint_angles[18] = {0.0, 0.0,0.279, -0.139, 0.0, 0.0, 0.0, 0.0, 0.0, 0.0, 0.0, -0.279, 0.0, 0.0, 0.0, 0.0, 0.0, 0.0};'
p198
asI67
(lp199
S'<pose> 2.10 0.0 0.9 1.57 0.0 2.965 </pose>'
p200
aS'float joint_angles[18] = {0.0, 0.0,0.279, -0.139, 0.0, 0.0, 0.0, 0.0, 0.0, 0.0, 0.139, -0.0, 0.0, 0.0, 0.0, 0.0, 0.0, 0.0};'
p201
asI68
(lp202
S'<pose> 2.10 0.0 0.9 1.57 0.0 2.965 </pose>'
p203
aS'float joint_angles[18] = {0.0, 0.0,0.279, -0.139, 0.0, 0.0, 0.0, 0.0, 0.0, 0.0, 0.139, -0.139, 0.0, 0.0, 0.0, 0.0, 0.0, 0.0};'
p204
asI69
(lp205
S'<pose> 2.10 0.0 0.9 1.57 0.0 2.965 </pose>'
p206
aS'float joint_angles[18] = {0.0, 0.0,0.279, -0.139, 0.0, 0.0, 0.0, 0.0, 0.0, 0.0, 0.139, -0.279, 0.0, 0.0, 0.0, 0.0, 0.0, 0.0};'
p207
asI70
(lp208
S'<pose> 2.10 0.0 0.9 1.57 0.0 2.965 </pose>'
p209
aS'float joint_angles[18] = {0.0, 0.0,0.279, -0.139, 0.0, 0.0, 0.0, 0.0, 0.0, 0.0, 0.279, -0.0, 0.0, 0.0, 0.0, 0.0, 0.0, 0.0};'
p210
asI71
(lp211
S'<pose> 2.10 0.0 0.9 1.57 0.0 2.965 </pose>'
p212
aS'float joint_angles[18] = {0.0, 0.0,0.279, -0.139, 0.0, 0.0, 0.0, 0.0, 0.0, 0.0, 0.279, -0.139, 0.0, 0.0, 0.0, 0.0, 0.0, 0.0};'
p213
asI72
(lp214
S'<pose> 2.10 0.0 0.9 1.57 0.0 2.965 </pose>'
p215
aS'float joint_angles[18] = {0.0, 0.0,0.279, -0.139, 0.0, 0.0, 0.0, 0.0, 0.0, 0.0, 0.279, -0.279, 0.0, 0.0, 0.0, 0.0, 0.0, 0.0};'
p216
asI73
(lp217
S'<pose> 2.10 0.0 0.9 1.57 0.0 2.965 </pose>'
p218
aS'float joint_angles[18] = {0.0, 0.0,0.279, -0.279, 0.0, 0.0, 0.0, 0.0, 0.0, 0.0, 0.0, -0.0, 0.0, 0.0, 0.0, 0.0, 0.0, 0.0};'
p219
asI74
(lp220
S'<pose> 2.10 0.0 0.9 1.57 0.0 2.965 </pose>'
p221
aS'float joint_angles[18] = {0.0, 0.0,0.279, -0.279, 0.0, 0.0, 0.0, 0.0, 0.0, 0.0, 0.0, -0.139, 0.0, 0.0, 0.0, 0.0, 0.0, 0.0};'
p222
asI75
(lp223
S'<pose> 2.10 0.0 0.9 1.57 0.0 2.965 </pose>'
p224
aS'float joint_angles[18] = {0.0, 0.0,0.279, -0.279, 0.0, 0.0, 0.0, 0.0, 0.0, 0.0, 0.0, -0.279, 0.0, 0.0, 0.0, 0.0, 0.0, 0.0};'
p225
asI76
(lp226
S'<pose> 2.10 0.0 0.9 1.57 0.0 2.965 </pose>'
p227
aS'float joint_angles[18] = {0.0, 0.0,0.279, -0.279, 0.0, 0.0, 0.0, 0.0, 0.0, 0.0, 0.139, -0.0, 0.0, 0.0, 0.0, 0.0, 0.0, 0.0};'
p228
asI77
(lp229
S'<pose> 2.10 0.0 0.9 1.57 0.0 2.965 </pose>'
p230
aS'float joint_angles[18] = {0.0, 0.0,0.279, -0.279, 0.0, 0.0, 0.0, 0.0, 0.0, 0.0, 0.139, -0.139, 0.0, 0.0, 0.0, 0.0, 0.0, 0.0};'
p231
asI78
(lp232
S'<pose> 2.10 0.0 0.9 1.57 0.0 2.965 </pose>'
p233
aS'float joint_angles[18] = {0.0, 0.0,0.279, -0.279, 0.0, 0.0, 0.0, 0.0, 0.0, 0.0, 0.139, -0.279, 0.0, 0.0, 0.0, 0.0, 0.0, 0.0};'
p234
asI79
(lp235
S'<pose> 2.10 0.0 0.9 1.57 0.0 2.965 </pose>'
p236
aS'float joint_angles[18] = {0.0, 0.0,0.279, -0.279, 0.0, 0.0, 0.0, 0.0, 0.0, 0.0, 0.279, -0.0, 0.0, 0.0, 0.0, 0.0, 0.0, 0.0};'
p237
asI80
(lp238
S'<pose> 2.10 0.0 0.9 1.57 0.0 2.965 </pose>'
p239
aS'float joint_angles[18] = {0.0, 0.0,0.279, -0.279, 0.0, 0.0, 0.0, 0.0, 0.0, 0.0, 0.279, -0.139, 0.0, 0.0, 0.0, 0.0, 0.0, 0.0};'
p240
asI81
(lp241
S'<pose> 2.10 0.0 0.9 1.57 0.0 2.965 </pose>'
p242
aS'float joint_angles[18] = {0.0, 0.0,0.279, -0.279, 0.0, 0.0, 0.0, 0.0, 0.0, 0.0, 0.279, -0.279, 0.0, 0.0, 0.0, 0.0, 0.0, 0.0};'
p243
asI82
(lp244
S'<pose> 2.10 0.0 0.9 1.57 0.0 3.14 </pose>'
p245
aS'float joint_angles[18] = {0.0, 0.0,0.0, -0.0, 0.0, 0.0, 0.0, 0.0, 0.0, 0.0, 0.0, -0.0, 0.0, 0.0, 0.0, 0.0, 0.0, 0.0};'
p246
asI83
(lp247
S'<pose> 2.10 0.0 0.9 1.57 0.0 3.14 </pose>'
p248
aS'float joint_angles[18] = {0.0, 0.0,0.0, -0.0, 0.0, 0.0, 0.0, 0.0, 0.0, 0.0, 0.0, -0.139, 0.0, 0.0, 0.0, 0.0, 0.0, 0.0};'
p249
asI84
(lp250
S'<pose> 2.10 0.0 0.9 1.57 0.0 3.14 </pose>'
p251
aS'float joint_angles[18] = {0.0, 0.0,0.0, -0.0, 0.0, 0.0, 0.0, 0.0, 0.0, 0.0, 0.0, -0.279, 0.0, 0.0, 0.0, 0.0, 0.0, 0.0};'
p252
asI85
(lp253
S'<pose> 2.10 0.0 0.9 1.57 0.0 3.14 </pose>'
p254
aS'float joint_angles[18] = {0.0, 0.0,0.0, -0.0, 0.0, 0.0, 0.0, 0.0, 0.0, 0.0, 0.139, -0.0, 0.0, 0.0, 0.0, 0.0, 0.0, 0.0};'
p255
asI86
(lp256
S'<pose> 2.10 0.0 0.9 1.57 0.0 3.14 </pose>'
p257
aS'float joint_angles[18] = {0.0, 0.0,0.0, -0.0, 0.0, 0.0, 0.0, 0.0, 0.0, 0.0, 0.139, -0.139, 0.0, 0.0, 0.0, 0.0, 0.0, 0.0};'
p258
asI87
(lp259
S'<pose> 2.10 0.0 0.9 1.57 0.0 3.14 </pose>'
p260
aS'float joint_angles[18] = {0.0, 0.0,0.0, -0.0, 0.0, 0.0, 0.0, 0.0, 0.0, 0.0, 0.139, -0.279, 0.0, 0.0, 0.0, 0.0, 0.0, 0.0};'
p261
asI88
(lp262
S'<pose> 2.10 0.0 0.9 1.57 0.0 3.14 </pose>'
p263
aS'float joint_angles[18] = {0.0, 0.0,0.0, -0.0, 0.0, 0.0, 0.0, 0.0, 0.0, 0.0, 0.279, -0.0, 0.0, 0.0, 0.0, 0.0, 0.0, 0.0};'
p264
asI89
(lp265
S'<pose> 2.10 0.0 0.9 1.57 0.0 3.14 </pose>'
p266
aS'float joint_angles[18] = {0.0, 0.0,0.0, -0.0, 0.0, 0.0, 0.0, 0.0, 0.0, 0.0, 0.279, -0.139, 0.0, 0.0, 0.0, 0.0, 0.0, 0.0};'
p267
asI90
(lp268
S'<pose> 2.10 0.0 0.9 1.57 0.0 3.14 </pose>'
p269
aS'float joint_angles[18] = {0.0, 0.0,0.0, -0.0, 0.0, 0.0, 0.0, 0.0, 0.0, 0.0, 0.279, -0.279, 0.0, 0.0, 0.0, 0.0, 0.0, 0.0};'
p270
asI91
(lp271
S'<pose> 2.10 0.0 0.9 1.57 0.0 3.14 </pose>'
p272
aS'float joint_angles[18] = {0.0, 0.0,0.0, -0.139, 0.0, 0.0, 0.0, 0.0, 0.0, 0.0, 0.0, -0.0, 0.0, 0.0, 0.0, 0.0, 0.0, 0.0};'
p273
asI92
(lp274
S'<pose> 2.10 0.0 0.9 1.57 0.0 3.14 </pose>'
p275
aS'float joint_angles[18] = {0.0, 0.0,0.0, -0.139, 0.0, 0.0, 0.0, 0.0, 0.0, 0.0, 0.0, -0.139, 0.0, 0.0, 0.0, 0.0, 0.0, 0.0};'
p276
asI93
(lp277
S'<pose> 2.10 0.0 0.9 1.57 0.0 3.14 </pose>'
p278
aS'float joint_angles[18] = {0.0, 0.0,0.0, -0.139, 0.0, 0.0, 0.0, 0.0, 0.0, 0.0, 0.0, -0.279, 0.0, 0.0, 0.0, 0.0, 0.0, 0.0};'
p279
asI94
(lp280
S'<pose> 2.10 0.0 0.9 1.57 0.0 3.14 </pose>'
p281
aS'float joint_angles[18] = {0.0, 0.0,0.0, -0.139, 0.0, 0.0, 0.0, 0.0, 0.0, 0.0, 0.139, -0.0, 0.0, 0.0, 0.0, 0.0, 0.0, 0.0};'
p282
asI95
(lp283
S'<pose> 2.10 0.0 0.9 1.57 0.0 3.14 </pose>'
p284
aS'float joint_angles[18] = {0.0, 0.0,0.0, -0.139, 0.0, 0.0, 0.0, 0.0, 0.0, 0.0, 0.139, -0.139, 0.0, 0.0, 0.0, 0.0, 0.0, 0.0};'
p285
asI96
(lp286
S'<pose> 2.10 0.0 0.9 1.57 0.0 3.14 </pose>'
p287
aS'float joint_angles[18] = {0.0, 0.0,0.0, -0.139, 0.0, 0.0, 0.0, 0.0, 0.0, 0.0, 0.139, -0.279, 0.0, 0.0, 0.0, 0.0, 0.0, 0.0};'
p288
asI97
(lp289
S'<pose> 2.10 0.0 0.9 1.57 0.0 3.14 </pose>'
p290
aS'float joint_angles[18] = {0.0, 0.0,0.0, -0.139, 0.0, 0.0, 0.0, 0.0, 0.0, 0.0, 0.279, -0.0, 0.0, 0.0, 0.0, 0.0, 0.0, 0.0};'
p291
asI98
(lp292
S'<pose> 2.10 0.0 0.9 1.57 0.0 3.14 </pose>'
p293
aS'float joint_angles[18] = {0.0, 0.0,0.0, -0.139, 0.0, 0.0, 0.0, 0.0, 0.0, 0.0, 0.279, -0.139, 0.0, 0.0, 0.0, 0.0, 0.0, 0.0};'
p294
asI99
(lp295
S'<pose> 2.10 0.0 0.9 1.57 0.0 3.14 </pose>'
p296
aS'float joint_angles[18] = {0.0, 0.0,0.0, -0.139, 0.0, 0.0, 0.0, 0.0, 0.0, 0.0, 0.279, -0.279, 0.0, 0.0, 0.0, 0.0, 0.0, 0.0};'
p297
asI100
(lp298
S'<pose> 2.10 0.0 0.9 1.57 0.0 3.14 </pose>'
p299
aS'float joint_angles[18] = {0.0, 0.0,0.0, -0.279, 0.0, 0.0, 0.0, 0.0, 0.0, 0.0, 0.0, -0.0, 0.0, 0.0, 0.0, 0.0, 0.0, 0.0};'
p300
asI101
(lp301
S'<pose> 2.10 0.0 0.9 1.57 0.0 3.14 </pose>'
p302
aS'float joint_angles[18] = {0.0, 0.0,0.0, -0.279, 0.0, 0.0, 0.0, 0.0, 0.0, 0.0, 0.0, -0.139, 0.0, 0.0, 0.0, 0.0, 0.0, 0.0};'
p303
asI102
(lp304
S'<pose> 2.10 0.0 0.9 1.57 0.0 3.14 </pose>'
p305
aS'float joint_angles[18] = {0.0, 0.0,0.0, -0.279, 0.0, 0.0, 0.0, 0.0, 0.0, 0.0, 0.0, -0.279, 0.0, 0.0, 0.0, 0.0, 0.0, 0.0};'
p306
asI103
(lp307
S'<pose> 2.10 0.0 0.9 1.57 0.0 3.14 </pose>'
p308
aS'float joint_angles[18] = {0.0, 0.0,0.0, -0.279, 0.0, 0.0, 0.0, 0.0, 0.0, 0.0, 0.139, -0.0, 0.0, 0.0, 0.0, 0.0, 0.0, 0.0};'
p309
asI104
(lp310
S'<pose> 2.10 0.0 0.9 1.57 0.0 3.14 </pose>'
p311
aS'float joint_angles[18] = {0.0, 0.0,0.0, -0.279, 0.0, 0.0, 0.0, 0.0, 0.0, 0.0, 0.139, -0.139, 0.0, 0.0, 0.0, 0.0, 0.0, 0.0};'
p312
asI105
(lp313
S'<pose> 2.10 0.0 0.9 1.57 0.0 3.14 </pose>'
p314
aS'float joint_angles[18] = {0.0, 0.0,0.0, -0.279, 0.0, 0.0, 0.0, 0.0, 0.0, 0.0, 0.139, -0.279, 0.0, 0.0, 0.0, 0.0, 0.0, 0.0};'
p315
asI106
(lp316
S'<pose> 2.10 0.0 0.9 1.57 0.0 3.14 </pose>'
p317
aS'float joint_angles[18] = {0.0, 0.0,0.0, -0.279, 0.0, 0.0, 0.0, 0.0, 0.0, 0.0, 0.279, -0.0, 0.0, 0.0, 0.0, 0.0, 0.0, 0.0};'
p318
asI107
(lp319
S'<pose> 2.10 0.0 0.9 1.57 0.0 3.14 </pose>'
p320
aS'float joint_angles[18] = {0.0, 0.0,0.0, -0.279, 0.0, 0.0, 0.0, 0.0, 0.0, 0.0, 0.279, -0.139, 0.0, 0.0, 0.0, 0.0, 0.0, 0.0};'
p321
asI108
(lp322
S'<pose> 2.10 0.0 0.9 1.57 0.0 3.14 </pose>'
p323
aS'float joint_angles[18] = {0.0, 0.0,0.0, -0.279, 0.0, 0.0, 0.0, 0.0, 0.0, 0.0, 0.279, -0.279, 0.0, 0.0, 0.0, 0.0, 0.0, 0.0};'
p324
asI109
(lp325
S'<pose> 2.10 0.0 0.9 1.57 0.0 3.14 </pose>'
p326
aS'float joint_angles[18] = {0.0, 0.0,0.139, -0.0, 0.0, 0.0, 0.0, 0.0, 0.0, 0.0, 0.0, -0.0, 0.0, 0.0, 0.0, 0.0, 0.0, 0.0};'
p327
asI110
(lp328
S'<pose> 2.10 0.0 0.9 1.57 0.0 3.14 </pose>'
p329
aS'float joint_angles[18] = {0.0, 0.0,0.139, -0.0, 0.0, 0.0, 0.0, 0.0, 0.0, 0.0, 0.0, -0.139, 0.0, 0.0, 0.0, 0.0, 0.0, 0.0};'
p330
asI111
(lp331
S'<pose> 2.10 0.0 0.9 1.57 0.0 3.14 </pose>'
p332
aS'float joint_angles[18] = {0.0, 0.0,0.139, -0.0, 0.0, 0.0, 0.0, 0.0, 0.0, 0.0, 0.0, -0.279, 0.0, 0.0, 0.0, 0.0, 0.0, 0.0};'
p333
asI112
(lp334
S'<pose> 2.10 0.0 0.9 1.57 0.0 3.14 </pose>'
p335
aS'float joint_angles[18] = {0.0, 0.0,0.139, -0.0, 0.0, 0.0, 0.0, 0.0, 0.0, 0.0, 0.139, -0.0, 0.0, 0.0, 0.0, 0.0, 0.0, 0.0};'
p336
asI113
(lp337
S'<pose> 2.10 0.0 0.9 1.57 0.0 3.14 </pose>'
p338
aS'float joint_angles[18] = {0.0, 0.0,0.139, -0.0, 0.0, 0.0, 0.0, 0.0, 0.0, 0.0, 0.139, -0.139, 0.0, 0.0, 0.0, 0.0, 0.0, 0.0};'
p339
asI114
(lp340
S'<pose> 2.10 0.0 0.9 1.57 0.0 3.14 </pose>'
p341
aS'float joint_angles[18] = {0.0, 0.0,0.139, -0.0, 0.0, 0.0, 0.0, 0.0, 0.0, 0.0, 0.139, -0.279, 0.0, 0.0, 0.0, 0.0, 0.0, 0.0};'
p342
asI115
(lp343
S'<pose> 2.10 0.0 0.9 1.57 0.0 3.14 </pose>'
p344
aS'float joint_angles[18] = {0.0, 0.0,0.139, -0.0, 0.0, 0.0, 0.0, 0.0, 0.0, 0.0, 0.279, -0.0, 0.0, 0.0, 0.0, 0.0, 0.0, 0.0};'
p345
asI116
(lp346
S'<pose> 2.10 0.0 0.9 1.57 0.0 3.14 </pose>'
p347
aS'float joint_angles[18] = {0.0, 0.0,0.139, -0.0, 0.0, 0.0, 0.0, 0.0, 0.0, 0.0, 0.279, -0.139, 0.0, 0.0, 0.0, 0.0, 0.0, 0.0};'
p348
asI117
(lp349
S'<pose> 2.10 0.0 0.9 1.57 0.0 3.14 </pose>'
p350
aS'float joint_angles[18] = {0.0, 0.0,0.139, -0.0, 0.0, 0.0, 0.0, 0.0, 0.0, 0.0, 0.279, -0.279, 0.0, 0.0, 0.0, 0.0, 0.0, 0.0};'
p351
asI118
(lp352
S'<pose> 2.10 0.0 0.9 1.57 0.0 3.14 </pose>'
p353
aS'float joint_angles[18] = {0.0, 0.0,0.139, -0.139, 0.0, 0.0, 0.0, 0.0, 0.0, 0.0, 0.0, -0.0, 0.0, 0.0, 0.0, 0.0, 0.0, 0.0};'
p354
asI119
(lp355
S'<pose> 2.10 0.0 0.9 1.57 0.0 3.14 </pose>'
p356
aS'float joint_angles[18] = {0.0, 0.0,0.139, -0.139, 0.0, 0.0, 0.0, 0.0, 0.0, 0.0, 0.0, -0.139, 0.0, 0.0, 0.0, 0.0, 0.0, 0.0};'
p357
asI120
(lp358
S'<pose> 2.10 0.0 0.9 1.57 0.0 3.14 </pose>'
p359
aS'float joint_angles[18] = {0.0, 0.0,0.139, -0.139, 0.0, 0.0, 0.0, 0.0, 0.0, 0.0, 0.0, -0.279, 0.0, 0.0, 0.0, 0.0, 0.0, 0.0};'
p360
asI121
(lp361
S'<pose> 2.10 0.0 0.9 1.57 0.0 3.14 </pose>'
p362
aS'float joint_angles[18] = {0.0, 0.0,0.139, -0.139, 0.0, 0.0, 0.0, 0.0, 0.0, 0.0, 0.139, -0.0, 0.0, 0.0, 0.0, 0.0, 0.0, 0.0};'
p363
asI122
(lp364
S'<pose> 2.10 0.0 0.9 1.57 0.0 3.14 </pose>'
p365
aS'float joint_angles[18] = {0.0, 0.0,0.139, -0.139, 0.0, 0.0, 0.0, 0.0, 0.0, 0.0, 0.139, -0.139, 0.0, 0.0, 0.0, 0.0, 0.0, 0.0};'
p366
asI123
(lp367
S'<pose> 2.10 0.0 0.9 1.57 0.0 3.14 </pose>'
p368
aS'float joint_angles[18] = {0.0, 0.0,0.139, -0.139, 0.0, 0.0, 0.0, 0.0, 0.0, 0.0, 0.139, -0.279, 0.0, 0.0, 0.0, 0.0, 0.0, 0.0};'
p369
asI124
(lp370
S'<pose> 2.10 0.0 0.9 1.57 0.0 3.14 </pose>'
p371
aS'float joint_angles[18] = {0.0, 0.0,0.139, -0.139, 0.0, 0.0, 0.0, 0.0, 0.0, 0.0, 0.279, -0.0, 0.0, 0.0, 0.0, 0.0, 0.0, 0.0};'
p372
asI125
(lp373
S'<pose> 2.10 0.0 0.9 1.57 0.0 3.14 </pose>'
p374
aS'float joint_angles[18] = {0.0, 0.0,0.139, -0.139, 0.0, 0.0, 0.0, 0.0, 0.0, 0.0, 0.279, -0.139, 0.0, 0.0, 0.0, 0.0, 0.0, 0.0};'
p375
asI126
(lp376
S'<pose> 2.10 0.0 0.9 1.57 0.0 3.14 </pose>'
p377
aS'float joint_angles[18] = {0.0, 0.0,0.139, -0.139, 0.0, 0.0, 0.0, 0.0, 0.0, 0.0, 0.279, -0.279, 0.0, 0.0, 0.0, 0.0, 0.0, 0.0};'
p378
asI127
(lp379
S'<pose> 2.10 0.0 0.9 1.57 0.0 3.14 </pose>'
p380
aS'float joint_angles[18] = {0.0, 0.0,0.139, -0.279, 0.0, 0.0, 0.0, 0.0, 0.0, 0.0, 0.0, -0.0, 0.0, 0.0, 0.0, 0.0, 0.0, 0.0};'
p381
asI128
(lp382
S'<pose> 2.10 0.0 0.9 1.57 0.0 3.14 </pose>'
p383
aS'float joint_angles[18] = {0.0, 0.0,0.139, -0.279, 0.0, 0.0, 0.0, 0.0, 0.0, 0.0, 0.0, -0.139, 0.0, 0.0, 0.0, 0.0, 0.0, 0.0};'
p384
asI129
(lp385
S'<pose> 2.10 0.0 0.9 1.57 0.0 3.14 </pose>'
p386
aS'float joint_angles[18] = {0.0, 0.0,0.139, -0.279, 0.0, 0.0, 0.0, 0.0, 0.0, 0.0, 0.0, -0.279, 0.0, 0.0, 0.0, 0.0, 0.0, 0.0};'
p387
asI130
(lp388
S'<pose> 2.10 0.0 0.9 1.57 0.0 3.14 </pose>'
p389
aS'float joint_angles[18] = {0.0, 0.0,0.139, -0.279, 0.0, 0.0, 0.0, 0.0, 0.0, 0.0, 0.139, -0.0, 0.0, 0.0, 0.0, 0.0, 0.0, 0.0};'
p390
asI131
(lp391
S'<pose> 2.10 0.0 0.9 1.57 0.0 3.14 </pose>'
p392
aS'float joint_angles[18] = {0.0, 0.0,0.139, -0.279, 0.0, 0.0, 0.0, 0.0, 0.0, 0.0, 0.139, -0.139, 0.0, 0.0, 0.0, 0.0, 0.0, 0.0};'
p393
asI132
(lp394
S'<pose> 2.10 0.0 0.9 1.57 0.0 3.14 </pose>'
p395
aS'float joint_angles[18] = {0.0, 0.0,0.139, -0.279, 0.0, 0.0, 0.0, 0.0, 0.0, 0.0, 0.139, -0.279, 0.0, 0.0, 0.0, 0.0, 0.0, 0.0};'
p396
asI133
(lp397
S'<pose> 2.10 0.0 0.9 1.57 0.0 3.14 </pose>'
p398
aS'float joint_angles[18] = {0.0, 0.0,0.139, -0.279, 0.0, 0.0, 0.0, 0.0, 0.0, 0.0, 0.279, -0.0, 0.0, 0.0, 0.0, 0.0, 0.0, 0.0};'
p399
asI134
(lp400
S'<pose> 2.10 0.0 0.9 1.57 0.0 3.14 </pose>'
p401
aS'float joint_angles[18] = {0.0, 0.0,0.139, -0.279, 0.0, 0.0, 0.0, 0.0, 0.0, 0.0, 0.279, -0.139, 0.0, 0.0, 0.0, 0.0, 0.0, 0.0};'
p402
asI135
(lp403
S'<pose> 2.10 0.0 0.9 1.57 0.0 3.14 </pose>'
p404
aS'float joint_angles[18] = {0.0, 0.0,0.139, -0.279, 0.0, 0.0, 0.0, 0.0, 0.0, 0.0, 0.279, -0.279, 0.0, 0.0, 0.0, 0.0, 0.0, 0.0};'
p405
asI136
(lp406
S'<pose> 2.10 0.0 0.9 1.57 0.0 3.14 </pose>'
p407
aS'float joint_angles[18] = {0.0, 0.0,0.279, -0.0, 0.0, 0.0, 0.0, 0.0, 0.0, 0.0, 0.0, -0.0, 0.0, 0.0, 0.0, 0.0, 0.0, 0.0};'
p408
asI137
(lp409
S'<pose> 2.10 0.0 0.9 1.57 0.0 3.14 </pose>'
p410
aS'float joint_angles[18] = {0.0, 0.0,0.279, -0.0, 0.0, 0.0, 0.0, 0.0, 0.0, 0.0, 0.0, -0.139, 0.0, 0.0, 0.0, 0.0, 0.0, 0.0};'
p411
asI138
(lp412
S'<pose> 2.10 0.0 0.9 1.57 0.0 3.14 </pose>'
p413
aS'float joint_angles[18] = {0.0, 0.0,0.279, -0.0, 0.0, 0.0, 0.0, 0.0, 0.0, 0.0, 0.0, -0.279, 0.0, 0.0, 0.0, 0.0, 0.0, 0.0};'
p414
asI139
(lp415
S'<pose> 2.10 0.0 0.9 1.57 0.0 3.14 </pose>'
p416
aS'float joint_angles[18] = {0.0, 0.0,0.279, -0.0, 0.0, 0.0, 0.0, 0.0, 0.0, 0.0, 0.139, -0.0, 0.0, 0.0, 0.0, 0.0, 0.0, 0.0};'
p417
asI140
(lp418
S'<pose> 2.10 0.0 0.9 1.57 0.0 3.14 </pose>'
p419
aS'float joint_angles[18] = {0.0, 0.0,0.279, -0.0, 0.0, 0.0, 0.0, 0.0, 0.0, 0.0, 0.139, -0.139, 0.0, 0.0, 0.0, 0.0, 0.0, 0.0};'
p420
asI141
(lp421
S'<pose> 2.10 0.0 0.9 1.57 0.0 3.14 </pose>'
p422
aS'float joint_angles[18] = {0.0, 0.0,0.279, -0.0, 0.0, 0.0, 0.0, 0.0, 0.0, 0.0, 0.139, -0.279, 0.0, 0.0, 0.0, 0.0, 0.0, 0.0};'
p423
asI142
(lp424
S'<pose> 2.10 0.0 0.9 1.57 0.0 3.14 </pose>'
p425
aS'float joint_angles[18] = {0.0, 0.0,0.279, -0.0, 0.0, 0.0, 0.0, 0.0, 0.0, 0.0, 0.279, -0.0, 0.0, 0.0, 0.0, 0.0, 0.0, 0.0};'
p426
asI143
(lp427
S'<pose> 2.10 0.0 0.9 1.57 0.0 3.14 </pose>'
p428
aS'float joint_angles[18] = {0.0, 0.0,0.279, -0.0, 0.0, 0.0, 0.0, 0.0, 0.0, 0.0, 0.279, -0.139, 0.0, 0.0, 0.0, 0.0, 0.0, 0.0};'
p429
asI144
(lp430
S'<pose> 2.10 0.0 0.9 1.57 0.0 3.14 </pose>'
p431
aS'float joint_angles[18] = {0.0, 0.0,0.279, -0.0, 0.0, 0.0, 0.0, 0.0, 0.0, 0.0, 0.279, -0.279, 0.0, 0.0, 0.0, 0.0, 0.0, 0.0};'
p432
asI145
(lp433
S'<pose> 2.10 0.0 0.9 1.57 0.0 3.14 </pose>'
p434
aS'float joint_angles[18] = {0.0, 0.0,0.279, -0.139, 0.0, 0.0, 0.0, 0.0, 0.0, 0.0, 0.0, -0.0, 0.0, 0.0, 0.0, 0.0, 0.0, 0.0};'
p435
asI146
(lp436
S'<pose> 2.10 0.0 0.9 1.57 0.0 3.14 </pose>'
p437
aS'float joint_angles[18] = {0.0, 0.0,0.279, -0.139, 0.0, 0.0, 0.0, 0.0, 0.0, 0.0, 0.0, -0.139, 0.0, 0.0, 0.0, 0.0, 0.0, 0.0};'
p438
asI147
(lp439
S'<pose> 2.10 0.0 0.9 1.57 0.0 3.14 </pose>'
p440
aS'float joint_angles[18] = {0.0, 0.0,0.279, -0.139, 0.0, 0.0, 0.0, 0.0, 0.0, 0.0, 0.0, -0.279, 0.0, 0.0, 0.0, 0.0, 0.0, 0.0};'
p441
asI148
(lp442
S'<pose> 2.10 0.0 0.9 1.57 0.0 3.14 </pose>'
p443
aS'float joint_angles[18] = {0.0, 0.0,0.279, -0.139, 0.0, 0.0, 0.0, 0.0, 0.0, 0.0, 0.139, -0.0, 0.0, 0.0, 0.0, 0.0, 0.0, 0.0};'
p444
asI149
(lp445
S'<pose> 2.10 0.0 0.9 1.57 0.0 3.14 </pose>'
p446
aS'float joint_angles[18] = {0.0, 0.0,0.279, -0.139, 0.0, 0.0, 0.0, 0.0, 0.0, 0.0, 0.139, -0.139, 0.0, 0.0, 0.0, 0.0, 0.0, 0.0};'
p447
asI150
(lp448
S'<pose> 2.10 0.0 0.9 1.57 0.0 3.14 </pose>'
p449
aS'float joint_angles[18] = {0.0, 0.0,0.279, -0.139, 0.0, 0.0, 0.0, 0.0, 0.0, 0.0, 0.139, -0.279, 0.0, 0.0, 0.0, 0.0, 0.0, 0.0};'
p450
asI151
(lp451
S'<pose> 2.10 0.0 0.9 1.57 0.0 3.14 </pose>'
p452
aS'float joint_angles[18] = {0.0, 0.0,0.279, -0.139, 0.0, 0.0, 0.0, 0.0, 0.0, 0.0, 0.279, -0.0, 0.0, 0.0, 0.0, 0.0, 0.0, 0.0};'
p453
asI152
(lp454
S'<pose> 2.10 0.0 0.9 1.57 0.0 3.14 </pose>'
p455
aS'float joint_angles[18] = {0.0, 0.0,0.279, -0.139, 0.0, 0.0, 0.0, 0.0, 0.0, 0.0, 0.279, -0.139, 0.0, 0.0, 0.0, 0.0, 0.0, 0.0};'
p456
asI153
(lp457
S'<pose> 2.10 0.0 0.9 1.57 0.0 3.14 </pose>'
p458
aS'float joint_angles[18] = {0.0, 0.0,0.279, -0.139, 0.0, 0.0, 0.0, 0.0, 0.0, 0.0, 0.279, -0.279, 0.0, 0.0, 0.0, 0.0, 0.0, 0.0};'
p459
asI154
(lp460
S'<pose> 2.10 0.0 0.9 1.57 0.0 3.14 </pose>'
p461
aS'float joint_angles[18] = {0.0, 0.0,0.279, -0.279, 0.0, 0.0, 0.0, 0.0, 0.0, 0.0, 0.0, -0.0, 0.0, 0.0, 0.0, 0.0, 0.0, 0.0};'
p462
asI155
(lp463
S'<pose> 2.10 0.0 0.9 1.57 0.0 3.14 </pose>'
p464
aS'float joint_angles[18] = {0.0, 0.0,0.279, -0.279, 0.0, 0.0, 0.0, 0.0, 0.0, 0.0, 0.0, -0.139, 0.0, 0.0, 0.0, 0.0, 0.0, 0.0};'
p465
asI156
(lp466
S'<pose> 2.10 0.0 0.9 1.57 0.0 3.14 </pose>'
p467
aS'float joint_angles[18] = {0.0, 0.0,0.279, -0.279, 0.0, 0.0, 0.0, 0.0, 0.0, 0.0, 0.0, -0.279, 0.0, 0.0, 0.0, 0.0, 0.0, 0.0};'
p468
asI157
(lp469
S'<pose> 2.10 0.0 0.9 1.57 0.0 3.14 </pose>'
p470
aS'float joint_angles[18] = {0.0, 0.0,0.279, -0.279, 0.0, 0.0, 0.0, 0.0, 0.0, 0.0, 0.139, -0.0, 0.0, 0.0, 0.0, 0.0, 0.0, 0.0};'
p471
asI158
(lp472
S'<pose> 2.10 0.0 0.9 1.57 0.0 3.14 </pose>'
p473
aS'float joint_angles[18] = {0.0, 0.0,0.279, -0.279, 0.0, 0.0, 0.0, 0.0, 0.0, 0.0, 0.139, -0.139, 0.0, 0.0, 0.0, 0.0, 0.0, 0.0};'
p474
asI159
(lp475
S'<pose> 2.10 0.0 0.9 1.57 0.0 3.14 </pose>'
p476
aS'float joint_angles[18] = {0.0, 0.0,0.279, -0.279, 0.0, 0.0, 0.0, 0.0, 0.0, 0.0, 0.139, -0.279, 0.0, 0.0, 0.0, 0.0, 0.0, 0.0};'
p477
asI160
(lp478
S'<pose> 2.10 0.0 0.9 1.57 0.0 3.14 </pose>'
p479
aS'float joint_angles[18] = {0.0, 0.0,0.279, -0.279, 0.0, 0.0, 0.0, 0.0, 0.0, 0.0, 0.279, -0.0, 0.0, 0.0, 0.0, 0.0, 0.0, 0.0};'
p480
asI161
(lp481
S'<pose> 2.10 0.0 0.9 1.57 0.0 3.14 </pose>'
p482
aS'float joint_angles[18] = {0.0, 0.0,0.279, -0.279, 0.0, 0.0, 0.0, 0.0, 0.0, 0.0, 0.279, -0.139, 0.0, 0.0, 0.0, 0.0, 0.0, 0.0};'
p483
asI162
(lp484
S'<pose> 2.10 0.0 0.9 1.57 0.0 3.14 </pose>'
p485
aS'float joint_angles[18] = {0.0, 0.0,0.279, -0.279, 0.0, 0.0, 0.0, 0.0, 0.0, 0.0, 0.279, -0.279, 0.0, 0.0, 0.0, 0.0, 0.0, 0.0};'
p486
asI163
(lp487
S'<pose> 2.10 0.0 0.9 1.57 0.0 3.315 </pose>'
p488
aS'float joint_angles[18] = {0.0, 0.0,0.0, -0.0, 0.0, 0.0, 0.0, 0.0, 0.0, 0.0, 0.0, -0.0, 0.0, 0.0, 0.0, 0.0, 0.0, 0.0};'
p489
asI164
(lp490
S'<pose> 2.10 0.0 0.9 1.57 0.0 3.315 </pose>'
p491
aS'float joint_angles[18] = {0.0, 0.0,0.0, -0.0, 0.0, 0.0, 0.0, 0.0, 0.0, 0.0, 0.0, -0.139, 0.0, 0.0, 0.0, 0.0, 0.0, 0.0};'
p492
asI165
(lp493
S'<pose> 2.10 0.0 0.9 1.57 0.0 3.315 </pose>'
p494
aS'float joint_angles[18] = {0.0, 0.0,0.0, -0.0, 0.0, 0.0, 0.0, 0.0, 0.0, 0.0, 0.0, -0.279, 0.0, 0.0, 0.0, 0.0, 0.0, 0.0};'
p495
asI166
(lp496
S'<pose> 2.10 0.0 0.9 1.57 0.0 3.315 </pose>'
p497
aS'float joint_angles[18] = {0.0, 0.0,0.0, -0.0, 0.0, 0.0, 0.0, 0.0, 0.0, 0.0, 0.139, -0.0, 0.0, 0.0, 0.0, 0.0, 0.0, 0.0};'
p498
asI167
(lp499
S'<pose> 2.10 0.0 0.9 1.57 0.0 3.315 </pose>'
p500
aS'float joint_angles[18] = {0.0, 0.0,0.0, -0.0, 0.0, 0.0, 0.0, 0.0, 0.0, 0.0, 0.139, -0.139, 0.0, 0.0, 0.0, 0.0, 0.0, 0.0};'
p501
asI168
(lp502
S'<pose> 2.10 0.0 0.9 1.57 0.0 3.315 </pose>'
p503
aS'float joint_angles[18] = {0.0, 0.0,0.0, -0.0, 0.0, 0.0, 0.0, 0.0, 0.0, 0.0, 0.139, -0.279, 0.0, 0.0, 0.0, 0.0, 0.0, 0.0};'
p504
asI169
(lp505
S'<pose> 2.10 0.0 0.9 1.57 0.0 3.315 </pose>'
p506
aS'float joint_angles[18] = {0.0, 0.0,0.0, -0.0, 0.0, 0.0, 0.0, 0.0, 0.0, 0.0, 0.279, -0.0, 0.0, 0.0, 0.0, 0.0, 0.0, 0.0};'
p507
asI170
(lp508
S'<pose> 2.10 0.0 0.9 1.57 0.0 3.315 </pose>'
p509
aS'float joint_angles[18] = {0.0, 0.0,0.0, -0.0, 0.0, 0.0, 0.0, 0.0, 0.0, 0.0, 0.279, -0.139, 0.0, 0.0, 0.0, 0.0, 0.0, 0.0};'
p510
asI171
(lp511
S'<pose> 2.10 0.0 0.9 1.57 0.0 3.315 </pose>'
p512
aS'float joint_angles[18] = {0.0, 0.0,0.0, -0.0, 0.0, 0.0, 0.0, 0.0, 0.0, 0.0, 0.279, -0.279, 0.0, 0.0, 0.0, 0.0, 0.0, 0.0};'
p513
asI172
(lp514
S'<pose> 2.10 0.0 0.9 1.57 0.0 3.315 </pose>'
p515
aS'float joint_angles[18] = {0.0, 0.0,0.0, -0.139, 0.0, 0.0, 0.0, 0.0, 0.0, 0.0, 0.0, -0.0, 0.0, 0.0, 0.0, 0.0, 0.0, 0.0};'
p516
asI173
(lp517
S'<pose> 2.10 0.0 0.9 1.57 0.0 3.315 </pose>'
p518
aS'float joint_angles[18] = {0.0, 0.0,0.0, -0.139, 0.0, 0.0, 0.0, 0.0, 0.0, 0.0, 0.0, -0.139, 0.0, 0.0, 0.0, 0.0, 0.0, 0.0};'
p519
asI174
(lp520
S'<pose> 2.10 0.0 0.9 1.57 0.0 3.315 </pose>'
p521
aS'float joint_angles[18] = {0.0, 0.0,0.0, -0.139, 0.0, 0.0, 0.0, 0.0, 0.0, 0.0, 0.0, -0.279, 0.0, 0.0, 0.0, 0.0, 0.0, 0.0};'
p522
asI175
(lp523
S'<pose> 2.10 0.0 0.9 1.57 0.0 3.315 </pose>'
p524
aS'float joint_angles[18] = {0.0, 0.0,0.0, -0.139, 0.0, 0.0, 0.0, 0.0, 0.0, 0.0, 0.139, -0.0, 0.0, 0.0, 0.0, 0.0, 0.0, 0.0};'
p525
asI176
(lp526
S'<pose> 2.10 0.0 0.9 1.57 0.0 3.315 </pose>'
p527
aS'float joint_angles[18] = {0.0, 0.0,0.0, -0.139, 0.0, 0.0, 0.0, 0.0, 0.0, 0.0, 0.139, -0.139, 0.0, 0.0, 0.0, 0.0, 0.0, 0.0};'
p528
asI177
(lp529
S'<pose> 2.10 0.0 0.9 1.57 0.0 3.315 </pose>'
p530
aS'float joint_angles[18] = {0.0, 0.0,0.0, -0.139, 0.0, 0.0, 0.0, 0.0, 0.0, 0.0, 0.139, -0.279, 0.0, 0.0, 0.0, 0.0, 0.0, 0.0};'
p531
asI178
(lp532
S'<pose> 2.10 0.0 0.9 1.57 0.0 3.315 </pose>'
p533
aS'float joint_angles[18] = {0.0, 0.0,0.0, -0.139, 0.0, 0.0, 0.0, 0.0, 0.0, 0.0, 0.279, -0.0, 0.0, 0.0, 0.0, 0.0, 0.0, 0.0};'
p534
asI179
(lp535
S'<pose> 2.10 0.0 0.9 1.57 0.0 3.315 </pose>'
p536
aS'float joint_angles[18] = {0.0, 0.0,0.0, -0.139, 0.0, 0.0, 0.0, 0.0, 0.0, 0.0, 0.279, -0.139, 0.0, 0.0, 0.0, 0.0, 0.0, 0.0};'
p537
asI180
(lp538
S'<pose> 2.10 0.0 0.9 1.57 0.0 3.315 </pose>'
p539
aS'float joint_angles[18] = {0.0, 0.0,0.0, -0.139, 0.0, 0.0, 0.0, 0.0, 0.0, 0.0, 0.279, -0.279, 0.0, 0.0, 0.0, 0.0, 0.0, 0.0};'
p540
asI181
(lp541
S'<pose> 2.10 0.0 0.9 1.57 0.0 3.315 </pose>'
p542
aS'float joint_angles[18] = {0.0, 0.0,0.0, -0.279, 0.0, 0.0, 0.0, 0.0, 0.0, 0.0, 0.0, -0.0, 0.0, 0.0, 0.0, 0.0, 0.0, 0.0};'
p543
asI182
(lp544
S'<pose> 2.10 0.0 0.9 1.57 0.0 3.315 </pose>'
p545
aS'float joint_angles[18] = {0.0, 0.0,0.0, -0.279, 0.0, 0.0, 0.0, 0.0, 0.0, 0.0, 0.0, -0.139, 0.0, 0.0, 0.0, 0.0, 0.0, 0.0};'
p546
asI183
(lp547
S'<pose> 2.10 0.0 0.9 1.57 0.0 3.315 </pose>'
p548
aS'float joint_angles[18] = {0.0, 0.0,0.0, -0.279, 0.0, 0.0, 0.0, 0.0, 0.0, 0.0, 0.0, -0.279, 0.0, 0.0, 0.0, 0.0, 0.0, 0.0};'
p549
asI184
(lp550
S'<pose> 2.10 0.0 0.9 1.57 0.0 3.315 </pose>'
p551
aS'float joint_angles[18] = {0.0, 0.0,0.0, -0.279, 0.0, 0.0, 0.0, 0.0, 0.0, 0.0, 0.139, -0.0, 0.0, 0.0, 0.0, 0.0, 0.0, 0.0};'
p552
asI185
(lp553
S'<pose> 2.10 0.0 0.9 1.57 0.0 3.315 </pose>'
p554
aS'float joint_angles[18] = {0.0, 0.0,0.0, -0.279, 0.0, 0.0, 0.0, 0.0, 0.0, 0.0, 0.139, -0.139, 0.0, 0.0, 0.0, 0.0, 0.0, 0.0};'
p555
asI186
(lp556
S'<pose> 2.10 0.0 0.9 1.57 0.0 3.315 </pose>'
p557
aS'float joint_angles[18] = {0.0, 0.0,0.0, -0.279, 0.0, 0.0, 0.0, 0.0, 0.0, 0.0, 0.139, -0.279, 0.0, 0.0, 0.0, 0.0, 0.0, 0.0};'
p558
asI187
(lp559
S'<pose> 2.10 0.0 0.9 1.57 0.0 3.315 </pose>'
p560
aS'float joint_angles[18] = {0.0, 0.0,0.0, -0.279, 0.0, 0.0, 0.0, 0.0, 0.0, 0.0, 0.279, -0.0, 0.0, 0.0, 0.0, 0.0, 0.0, 0.0};'
p561
asI188
(lp562
S'<pose> 2.10 0.0 0.9 1.57 0.0 3.315 </pose>'
p563
aS'float joint_angles[18] = {0.0, 0.0,0.0, -0.279, 0.0, 0.0, 0.0, 0.0, 0.0, 0.0, 0.279, -0.139, 0.0, 0.0, 0.0, 0.0, 0.0, 0.0};'
p564
asI189
(lp565
S'<pose> 2.10 0.0 0.9 1.57 0.0 3.315 </pose>'
p566
aS'float joint_angles[18] = {0.0, 0.0,0.0, -0.279, 0.0, 0.0, 0.0, 0.0, 0.0, 0.0, 0.279, -0.279, 0.0, 0.0, 0.0, 0.0, 0.0, 0.0};'
p567
asI190
(lp568
S'<pose> 2.10 0.0 0.9 1.57 0.0 3.315 </pose>'
p569
aS'float joint_angles[18] = {0.0, 0.0,0.139, -0.0, 0.0, 0.0, 0.0, 0.0, 0.0, 0.0, 0.0, -0.0, 0.0, 0.0, 0.0, 0.0, 0.0, 0.0};'
p570
asI191
(lp571
S'<pose> 2.10 0.0 0.9 1.57 0.0 3.315 </pose>'
p572
aS'float joint_angles[18] = {0.0, 0.0,0.139, -0.0, 0.0, 0.0, 0.0, 0.0, 0.0, 0.0, 0.0, -0.139, 0.0, 0.0, 0.0, 0.0, 0.0, 0.0};'
p573
asI192
(lp574
S'<pose> 2.10 0.0 0.9 1.57 0.0 3.315 </pose>'
p575
aS'float joint_angles[18] = {0.0, 0.0,0.139, -0.0, 0.0, 0.0, 0.0, 0.0, 0.0, 0.0, 0.0, -0.279, 0.0, 0.0, 0.0, 0.0, 0.0, 0.0};'
p576
asI193
(lp577
S'<pose> 2.10 0.0 0.9 1.57 0.0 3.315 </pose>'
p578
aS'float joint_angles[18] = {0.0, 0.0,0.139, -0.0, 0.0, 0.0, 0.0, 0.0, 0.0, 0.0, 0.139, -0.0, 0.0, 0.0, 0.0, 0.0, 0.0, 0.0};'
p579
asI194
(lp580
S'<pose> 2.10 0.0 0.9 1.57 0.0 3.315 </pose>'
p581
aS'float joint_angles[18] = {0.0, 0.0,0.139, -0.0, 0.0, 0.0, 0.0, 0.0, 0.0, 0.0, 0.139, -0.139, 0.0, 0.0, 0.0, 0.0, 0.0, 0.0};'
p582
asI195
(lp583
S'<pose> 2.10 0.0 0.9 1.57 0.0 3.315 </pose>'
p584
aS'float joint_angles[18] = {0.0, 0.0,0.139, -0.0, 0.0, 0.0, 0.0, 0.0, 0.0, 0.0, 0.139, -0.279, 0.0, 0.0, 0.0, 0.0, 0.0, 0.0};'
p585
asI196
(lp586
S'<pose> 2.10 0.0 0.9 1.57 0.0 3.315 </pose>'
p587
aS'float joint_angles[18] = {0.0, 0.0,0.139, -0.0, 0.0, 0.0, 0.0, 0.0, 0.0, 0.0, 0.279, -0.0, 0.0, 0.0, 0.0, 0.0, 0.0, 0.0};'
p588
asI197
(lp589
S'<pose> 2.10 0.0 0.9 1.57 0.0 3.315 </pose>'
p590
aS'float joint_angles[18] = {0.0, 0.0,0.139, -0.0, 0.0, 0.0, 0.0, 0.0, 0.0, 0.0, 0.279, -0.139, 0.0, 0.0, 0.0, 0.0, 0.0, 0.0};'
p591
asI198
(lp592
S'<pose> 2.10 0.0 0.9 1.57 0.0 3.315 </pose>'
p593
aS'float joint_angles[18] = {0.0, 0.0,0.139, -0.0, 0.0, 0.0, 0.0, 0.0, 0.0, 0.0, 0.279, -0.279, 0.0, 0.0, 0.0, 0.0, 0.0, 0.0};'
p594
asI199
(lp595
S'<pose> 2.10 0.0 0.9 1.57 0.0 3.315 </pose>'
p596
aS'float joint_angles[18] = {0.0, 0.0,0.139, -0.139, 0.0, 0.0, 0.0, 0.0, 0.0, 0.0, 0.0, -0.0, 0.0, 0.0, 0.0, 0.0, 0.0, 0.0};'
p597
asI200
(lp598
S'<pose> 2.10 0.0 0.9 1.57 0.0 3.315 </pose>'
p599
aS'float joint_angles[18] = {0.0, 0.0,0.139, -0.139, 0.0, 0.0, 0.0, 0.0, 0.0, 0.0, 0.0, -0.139, 0.0, 0.0, 0.0, 0.0, 0.0, 0.0};'
p600
asI201
(lp601
S'<pose> 2.10 0.0 0.9 1.57 0.0 3.315 </pose>'
p602
aS'float joint_angles[18] = {0.0, 0.0,0.139, -0.139, 0.0, 0.0, 0.0, 0.0, 0.0, 0.0, 0.0, -0.279, 0.0, 0.0, 0.0, 0.0, 0.0, 0.0};'
p603
asI202
(lp604
S'<pose> 2.10 0.0 0.9 1.57 0.0 3.315 </pose>'
p605
aS'float joint_angles[18] = {0.0, 0.0,0.139, -0.139, 0.0, 0.0, 0.0, 0.0, 0.0, 0.0, 0.139, -0.0, 0.0, 0.0, 0.0, 0.0, 0.0, 0.0};'
p606
asI203
(lp607
S'<pose> 2.10 0.0 0.9 1.57 0.0 3.315 </pose>'
p608
aS'float joint_angles[18] = {0.0, 0.0,0.139, -0.139, 0.0, 0.0, 0.0, 0.0, 0.0, 0.0, 0.139, -0.139, 0.0, 0.0, 0.0, 0.0, 0.0, 0.0};'
p609
asI204
(lp610
S'<pose> 2.10 0.0 0.9 1.57 0.0 3.315 </pose>'
p611
aS'float joint_angles[18] = {0.0, 0.0,0.139, -0.139, 0.0, 0.0, 0.0, 0.0, 0.0, 0.0, 0.139, -0.279, 0.0, 0.0, 0.0, 0.0, 0.0, 0.0};'
p612
asI205
(lp613
S'<pose> 2.10 0.0 0.9 1.57 0.0 3.315 </pose>'
p614
aS'float joint_angles[18] = {0.0, 0.0,0.139, -0.139, 0.0, 0.0, 0.0, 0.0, 0.0, 0.0, 0.279, -0.0, 0.0, 0.0, 0.0, 0.0, 0.0, 0.0};'
p615
asI206
(lp616
S'<pose> 2.10 0.0 0.9 1.57 0.0 3.315 </pose>'
p617
aS'float joint_angles[18] = {0.0, 0.0,0.139, -0.139, 0.0, 0.0, 0.0, 0.0, 0.0, 0.0, 0.279, -0.139, 0.0, 0.0, 0.0, 0.0, 0.0, 0.0};'
p618
asI207
(lp619
S'<pose> 2.10 0.0 0.9 1.57 0.0 3.315 </pose>'
p620
aS'float joint_angles[18] = {0.0, 0.0,0.139, -0.139, 0.0, 0.0, 0.0, 0.0, 0.0, 0.0, 0.279, -0.279, 0.0, 0.0, 0.0, 0.0, 0.0, 0.0};'
p621
asI208
(lp622
S'<pose> 2.10 0.0 0.9 1.57 0.0 3.315 </pose>'
p623
aS'float joint_angles[18] = {0.0, 0.0,0.139, -0.279, 0.0, 0.0, 0.0, 0.0, 0.0, 0.0, 0.0, -0.0, 0.0, 0.0, 0.0, 0.0, 0.0, 0.0};'
p624
asI209
(lp625
S'<pose> 2.10 0.0 0.9 1.57 0.0 3.315 </pose>'
p626
aS'float joint_angles[18] = {0.0, 0.0,0.139, -0.279, 0.0, 0.0, 0.0, 0.0, 0.0, 0.0, 0.0, -0.139, 0.0, 0.0, 0.0, 0.0, 0.0, 0.0};'
p627
asI210
(lp628
S'<pose> 2.10 0.0 0.9 1.57 0.0 3.315 </pose>'
p629
aS'float joint_angles[18] = {0.0, 0.0,0.139, -0.279, 0.0, 0.0, 0.0, 0.0, 0.0, 0.0, 0.0, -0.279, 0.0, 0.0, 0.0, 0.0, 0.0, 0.0};'
p630
asI211
(lp631
S'<pose> 2.10 0.0 0.9 1.57 0.0 3.315 </pose>'
p632
aS'float joint_angles[18] = {0.0, 0.0,0.139, -0.279, 0.0, 0.0, 0.0, 0.0, 0.0, 0.0, 0.139, -0.0, 0.0, 0.0, 0.0, 0.0, 0.0, 0.0};'
p633
asI212
(lp634
S'<pose> 2.10 0.0 0.9 1.57 0.0 3.315 </pose>'
p635
aS'float joint_angles[18] = {0.0, 0.0,0.139, -0.279, 0.0, 0.0, 0.0, 0.0, 0.0, 0.0, 0.139, -0.139, 0.0, 0.0, 0.0, 0.0, 0.0, 0.0};'
p636
asI213
(lp637
S'<pose> 2.10 0.0 0.9 1.57 0.0 3.315 </pose>'
p638
aS'float joint_angles[18] = {0.0, 0.0,0.139, -0.279, 0.0, 0.0, 0.0, 0.0, 0.0, 0.0, 0.139, -0.279, 0.0, 0.0, 0.0, 0.0, 0.0, 0.0};'
p639
asI214
(lp640
S'<pose> 2.10 0.0 0.9 1.57 0.0 3.315 </pose>'
p641
aS'float joint_angles[18] = {0.0, 0.0,0.139, -0.279, 0.0, 0.0, 0.0, 0.0, 0.0, 0.0, 0.279, -0.0, 0.0, 0.0, 0.0, 0.0, 0.0, 0.0};'
p642
asI215
(lp643
S'<pose> 2.10 0.0 0.9 1.57 0.0 3.315 </pose>'
p644
aS'float joint_angles[18] = {0.0, 0.0,0.139, -0.279, 0.0, 0.0, 0.0, 0.0, 0.0, 0.0, 0.279, -0.139, 0.0, 0.0, 0.0, 0.0, 0.0, 0.0};'
p645
asI216
(lp646
S'<pose> 2.10 0.0 0.9 1.57 0.0 3.315 </pose>'
p647
aS'float joint_angles[18] = {0.0, 0.0,0.139, -0.279, 0.0, 0.0, 0.0, 0.0, 0.0, 0.0, 0.279, -0.279, 0.0, 0.0, 0.0, 0.0, 0.0, 0.0};'
p648
asI217
(lp649
S'<pose> 2.10 0.0 0.9 1.57 0.0 3.315 </pose>'
p650
aS'float joint_angles[18] = {0.0, 0.0,0.279, -0.0, 0.0, 0.0, 0.0, 0.0, 0.0, 0.0, 0.0, -0.0, 0.0, 0.0, 0.0, 0.0, 0.0, 0.0};'
p651
asI218
(lp652
S'<pose> 2.10 0.0 0.9 1.57 0.0 3.315 </pose>'
p653
aS'float joint_angles[18] = {0.0, 0.0,0.279, -0.0, 0.0, 0.0, 0.0, 0.0, 0.0, 0.0, 0.0, -0.139, 0.0, 0.0, 0.0, 0.0, 0.0, 0.0};'
p654
asI219
(lp655
S'<pose> 2.10 0.0 0.9 1.57 0.0 3.315 </pose>'
p656
aS'float joint_angles[18] = {0.0, 0.0,0.279, -0.0, 0.0, 0.0, 0.0, 0.0, 0.0, 0.0, 0.0, -0.279, 0.0, 0.0, 0.0, 0.0, 0.0, 0.0};'
p657
asI220
(lp658
S'<pose> 2.10 0.0 0.9 1.57 0.0 3.315 </pose>'
p659
aS'float joint_angles[18] = {0.0, 0.0,0.279, -0.0, 0.0, 0.0, 0.0, 0.0, 0.0, 0.0, 0.139, -0.0, 0.0, 0.0, 0.0, 0.0, 0.0, 0.0};'
p660
asI221
(lp661
S'<pose> 2.10 0.0 0.9 1.57 0.0 3.315 </pose>'
p662
aS'float joint_angles[18] = {0.0, 0.0,0.279, -0.0, 0.0, 0.0, 0.0, 0.0, 0.0, 0.0, 0.139, -0.139, 0.0, 0.0, 0.0, 0.0, 0.0, 0.0};'
p663
asI222
(lp664
S'<pose> 2.10 0.0 0.9 1.57 0.0 3.315 </pose>'
p665
aS'float joint_angles[18] = {0.0, 0.0,0.279, -0.0, 0.0, 0.0, 0.0, 0.0, 0.0, 0.0, 0.139, -0.279, 0.0, 0.0, 0.0, 0.0, 0.0, 0.0};'
p666
asI223
(lp667
S'<pose> 2.10 0.0 0.9 1.57 0.0 3.315 </pose>'
p668
aS'float joint_angles[18] = {0.0, 0.0,0.279, -0.0, 0.0, 0.0, 0.0, 0.0, 0.0, 0.0, 0.279, -0.0, 0.0, 0.0, 0.0, 0.0, 0.0, 0.0};'
p669
asI224
(lp670
S'<pose> 2.10 0.0 0.9 1.57 0.0 3.315 </pose>'
p671
aS'float joint_angles[18] = {0.0, 0.0,0.279, -0.0, 0.0, 0.0, 0.0, 0.0, 0.0, 0.0, 0.279, -0.139, 0.0, 0.0, 0.0, 0.0, 0.0, 0.0};'
p672
asI225
(lp673
S'<pose> 2.10 0.0 0.9 1.57 0.0 3.315 </pose>'
p674
aS'float joint_angles[18] = {0.0, 0.0,0.279, -0.0, 0.0, 0.0, 0.0, 0.0, 0.0, 0.0, 0.279, -0.279, 0.0, 0.0, 0.0, 0.0, 0.0, 0.0};'
p675
asI226
(lp676
S'<pose> 2.10 0.0 0.9 1.57 0.0 3.315 </pose>'
p677
aS'float joint_angles[18] = {0.0, 0.0,0.279, -0.139, 0.0, 0.0, 0.0, 0.0, 0.0, 0.0, 0.0, -0.0, 0.0, 0.0, 0.0, 0.0, 0.0, 0.0};'
p678
asI227
(lp679
S'<pose> 2.10 0.0 0.9 1.57 0.0 3.315 </pose>'
p680
aS'float joint_angles[18] = {0.0, 0.0,0.279, -0.139, 0.0, 0.0, 0.0, 0.0, 0.0, 0.0, 0.0, -0.139, 0.0, 0.0, 0.0, 0.0, 0.0, 0.0};'
p681
asI228
(lp682
S'<pose> 2.10 0.0 0.9 1.57 0.0 3.315 </pose>'
p683
aS'float joint_angles[18] = {0.0, 0.0,0.279, -0.139, 0.0, 0.0, 0.0, 0.0, 0.0, 0.0, 0.0, -0.279, 0.0, 0.0, 0.0, 0.0, 0.0, 0.0};'
p684
asI229
(lp685
S'<pose> 2.10 0.0 0.9 1.57 0.0 3.315 </pose>'
p686
aS'float joint_angles[18] = {0.0, 0.0,0.279, -0.139, 0.0, 0.0, 0.0, 0.0, 0.0, 0.0, 0.139, -0.0, 0.0, 0.0, 0.0, 0.0, 0.0, 0.0};'
p687
asI230
(lp688
S'<pose> 2.10 0.0 0.9 1.57 0.0 3.315 </pose>'
p689
aS'float joint_angles[18] = {0.0, 0.0,0.279, -0.139, 0.0, 0.0, 0.0, 0.0, 0.0, 0.0, 0.139, -0.139, 0.0, 0.0, 0.0, 0.0, 0.0, 0.0};'
p690
asI231
(lp691
S'<pose> 2.10 0.0 0.9 1.57 0.0 3.315 </pose>'
p692
aS'float joint_angles[18] = {0.0, 0.0,0.279, -0.139, 0.0, 0.0, 0.0, 0.0, 0.0, 0.0, 0.139, -0.279, 0.0, 0.0, 0.0, 0.0, 0.0, 0.0};'
p693
asI232
(lp694
S'<pose> 2.10 0.0 0.9 1.57 0.0 3.315 </pose>'
p695
aS'float joint_angles[18] = {0.0, 0.0,0.279, -0.139, 0.0, 0.0, 0.0, 0.0, 0.0, 0.0, 0.279, -0.0, 0.0, 0.0, 0.0, 0.0, 0.0, 0.0};'
p696
asI233
(lp697
S'<pose> 2.10 0.0 0.9 1.57 0.0 3.315 </pose>'
p698
aS'float joint_angles[18] = {0.0, 0.0,0.279, -0.139, 0.0, 0.0, 0.0, 0.0, 0.0, 0.0, 0.279, -0.139, 0.0, 0.0, 0.0, 0.0, 0.0, 0.0};'
p699
asI234
(lp700
S'<pose> 2.10 0.0 0.9 1.57 0.0 3.315 </pose>'
p701
aS'float joint_angles[18] = {0.0, 0.0,0.279, -0.139, 0.0, 0.0, 0.0, 0.0, 0.0, 0.0, 0.279, -0.279, 0.0, 0.0, 0.0, 0.0, 0.0, 0.0};'
p702
asI235
(lp703
S'<pose> 2.10 0.0 0.9 1.57 0.0 3.315 </pose>'
p704
aS'float joint_angles[18] = {0.0, 0.0,0.279, -0.279, 0.0, 0.0, 0.0, 0.0, 0.0, 0.0, 0.0, -0.0, 0.0, 0.0, 0.0, 0.0, 0.0, 0.0};'
p705
asI236
(lp706
S'<pose> 2.10 0.0 0.9 1.57 0.0 3.315 </pose>'
p707
aS'float joint_angles[18] = {0.0, 0.0,0.279, -0.279, 0.0, 0.0, 0.0, 0.0, 0.0, 0.0, 0.0, -0.139, 0.0, 0.0, 0.0, 0.0, 0.0, 0.0};'
p708
asI237
(lp709
S'<pose> 2.10 0.0 0.9 1.57 0.0 3.315 </pose>'
p710
aS'float joint_angles[18] = {0.0, 0.0,0.279, -0.279, 0.0, 0.0, 0.0, 0.0, 0.0, 0.0, 0.0, -0.279, 0.0, 0.0, 0.0, 0.0, 0.0, 0.0};'
p711
asI238
(lp712
S'<pose> 2.10 0.0 0.9 1.57 0.0 3.315 </pose>'
p713
aS'float joint_angles[18] = {0.0, 0.0,0.279, -0.279, 0.0, 0.0, 0.0, 0.0, 0.0, 0.0, 0.139, -0.0, 0.0, 0.0, 0.0, 0.0, 0.0, 0.0};'
p714
asI239
(lp715
S'<pose> 2.10 0.0 0.9 1.57 0.0 3.315 </pose>'
p716
aS'float joint_angles[18] = {0.0, 0.0,0.279, -0.279, 0.0, 0.0, 0.0, 0.0, 0.0, 0.0, 0.139, -0.139, 0.0, 0.0, 0.0, 0.0, 0.0, 0.0};'
p717
asI240
(lp718
S'<pose> 2.10 0.0 0.9 1.57 0.0 3.315 </pose>'
p719
aS'float joint_angles[18] = {0.0, 0.0,0.279, -0.279, 0.0, 0.0, 0.0, 0.0, 0.0, 0.0, 0.139, -0.279, 0.0, 0.0, 0.0, 0.0, 0.0, 0.0};'
p720
asI241
(lp721
S'<pose> 2.10 0.0 0.9 1.57 0.0 3.315 </pose>'
p722
aS'float joint_angles[18] = {0.0, 0.0,0.279, -0.279, 0.0, 0.0, 0.0, 0.0, 0.0, 0.0, 0.279, -0.0, 0.0, 0.0, 0.0, 0.0, 0.0, 0.0};'
p723
asI242
(lp724
S'<pose> 2.10 0.0 0.9 1.57 0.0 3.315 </pose>'
p725
aS'float joint_angles[18] = {0.0, 0.0,0.279, -0.279, 0.0, 0.0, 0.0, 0.0, 0.0, 0.0, 0.279, -0.139, 0.0, 0.0, 0.0, 0.0, 0.0, 0.0};'
p726
asI243
(lp727
S'<pose> 2.10 0.0 0.9 1.57 0.0 3.315 </pose>'
p728
aS'float joint_angles[18] = {0.0, 0.0,0.279, -0.279, 0.0, 0.0, 0.0, 0.0, 0.0, 0.0, 0.279, -0.279, 0.0, 0.0, 0.0, 0.0, 0.0, 0.0};'
p729
as.